
target/release/jlight:     формат файла elf64-x86-64


Дизассемблирование раздела .init:

0000000000007000 <_init>:
    7000:	f3 0f 1e fa          	endbr64 
    7004:	48 83 ec 08          	sub    $0x8,%rsp
    7008:	48 8b 05 11 29 05 00 	mov    0x52911(%rip),%rax        # 59920 <__gmon_start__>
    700f:	48 85 c0             	test   %rax,%rax
    7012:	74 02                	je     7016 <_init+0x16>
    7014:	ff d0                	callq  *%rax
    7016:	48 83 c4 08          	add    $0x8,%rsp
    701a:	c3                   	retq   

Дизассемблирование раздела .plt:

0000000000007020 <.plt>:
    7020:	ff 35 62 27 05 00    	pushq  0x52762(%rip)        # 59788 <_GLOBAL_OFFSET_TABLE_+0x8>
    7026:	ff 25 64 27 05 00    	jmpq   *0x52764(%rip)        # 59790 <_GLOBAL_OFFSET_TABLE_+0x10>
    702c:	0f 1f 40 00          	nopl   0x0(%rax)

0000000000007030 <snprintf@plt>:
    7030:	ff 25 62 27 05 00    	jmpq   *0x52762(%rip)        # 59798 <snprintf@GLIBC_2.2.5>
    7036:	68 00 00 00 00       	pushq  $0x0
    703b:	e9 e0 ff ff ff       	jmpq   7020 <.plt>

0000000000007040 <getpid@plt>:
    7040:	ff 25 5a 27 05 00    	jmpq   *0x5275a(%rip)        # 597a0 <getpid@GLIBC_2.2.5>
    7046:	68 01 00 00 00       	pushq  $0x1
    704b:	e9 d0 ff ff ff       	jmpq   7020 <.plt>

0000000000007050 <bsearch@plt>:
    7050:	ff 25 52 27 05 00    	jmpq   *0x52752(%rip)        # 597a8 <bsearch@GLIBC_2.2.5>
    7056:	68 02 00 00 00       	pushq  $0x2
    705b:	e9 c0 ff ff ff       	jmpq   7020 <.plt>

0000000000007060 <__tls_get_addr@plt>:
    7060:	ff 25 4a 27 05 00    	jmpq   *0x5274a(%rip)        # 597b0 <__tls_get_addr@GLIBC_2.3>
    7066:	68 03 00 00 00       	pushq  $0x3
    706b:	e9 b0 ff ff ff       	jmpq   7020 <.plt>

0000000000007070 <strrchr@plt>:
    7070:	ff 25 42 27 05 00    	jmpq   *0x52742(%rip)        # 597b8 <strrchr@GLIBC_2.2.5>
    7076:	68 04 00 00 00       	pushq  $0x4
    707b:	e9 a0 ff ff ff       	jmpq   7020 <.plt>

0000000000007080 <getpagesize@plt>:
    7080:	ff 25 3a 27 05 00    	jmpq   *0x5273a(%rip)        # 597c0 <getpagesize@GLIBC_2.2.5>
    7086:	68 05 00 00 00       	pushq  $0x5
    708b:	e9 90 ff ff ff       	jmpq   7020 <.plt>

0000000000007090 <__fxstat@plt>:
    7090:	ff 25 32 27 05 00    	jmpq   *0x52732(%rip)        # 597c8 <__fxstat@GLIBC_2.2.5>
    7096:	68 06 00 00 00       	pushq  $0x6
    709b:	e9 80 ff ff ff       	jmpq   7020 <.plt>

00000000000070a0 <dl_iterate_phdr@plt>:
    70a0:	ff 25 2a 27 05 00    	jmpq   *0x5272a(%rip)        # 597d0 <dl_iterate_phdr@GLIBC_2.2.5>
    70a6:	68 07 00 00 00       	pushq  $0x7
    70ab:	e9 70 ff ff ff       	jmpq   7020 <.plt>

00000000000070b0 <strcmp@plt>:
    70b0:	ff 25 22 27 05 00    	jmpq   *0x52722(%rip)        # 597d8 <strcmp@GLIBC_2.2.5>
    70b6:	68 08 00 00 00       	pushq  $0x8
    70bb:	e9 60 ff ff ff       	jmpq   7020 <.plt>

00000000000070c0 <_Unwind_Resume@plt>:
    70c0:	ff 25 1a 27 05 00    	jmpq   *0x5271a(%rip)        # 597e0 <_Unwind_Resume@GCC_3.0>
    70c6:	68 09 00 00 00       	pushq  $0x9
    70cb:	e9 50 ff ff ff       	jmpq   7020 <.plt>

00000000000070d0 <open@plt>:
    70d0:	ff 25 12 27 05 00    	jmpq   *0x52712(%rip)        # 597e8 <open@GLIBC_2.2.5>
    70d6:	68 0a 00 00 00       	pushq  $0xa
    70db:	e9 40 ff ff ff       	jmpq   7020 <.plt>

Дизассемблирование раздела .plt.got:

00000000000070e0 <memset@plt>:
    70e0:	ff 25 6a 27 05 00    	jmpq   *0x5276a(%rip)        # 59850 <memset@GLIBC_2.2.5>
    70e6:	66 90                	xchg   %ax,%ax

00000000000070e8 <close@plt>:
    70e8:	ff 25 a2 27 05 00    	jmpq   *0x527a2(%rip)        # 59890 <close@GLIBC_2.2.5>
    70ee:	66 90                	xchg   %ax,%ax

00000000000070f0 <abort@plt>:
    70f0:	ff 25 ca 27 05 00    	jmpq   *0x527ca(%rip)        # 598c0 <abort@GLIBC_2.2.5>
    70f6:	66 90                	xchg   %ax,%ax

00000000000070f8 <malloc@plt>:
    70f8:	ff 25 a2 28 05 00    	jmpq   *0x528a2(%rip)        # 599a0 <malloc@GLIBC_2.2.5>
    70fe:	66 90                	xchg   %ax,%ax

0000000000007100 <free@plt>:
    7100:	ff 25 aa 29 05 00    	jmpq   *0x529aa(%rip)        # 59ab0 <free@GLIBC_2.2.5>
    7106:	66 90                	xchg   %ax,%ax

0000000000007108 <strlen@plt>:
    7108:	ff 25 ba 29 05 00    	jmpq   *0x529ba(%rip)        # 59ac8 <strlen@GLIBC_2.2.5>
    710e:	66 90                	xchg   %ax,%ax

0000000000007110 <bcmp@plt>:
    7110:	ff 25 12 2b 05 00    	jmpq   *0x52b12(%rip)        # 59c28 <bcmp@GLIBC_2.2.5>
    7116:	66 90                	xchg   %ax,%ax

0000000000007118 <__errno_location@plt>:
    7118:	ff 25 fa 2b 05 00    	jmpq   *0x52bfa(%rip)        # 59d18 <__errno_location@GLIBC_2.2.5>
    711e:	66 90                	xchg   %ax,%ax

0000000000007120 <munmap@plt>:
    7120:	ff 25 d2 2c 05 00    	jmpq   *0x52cd2(%rip)        # 59df8 <munmap@GLIBC_2.2.5>
    7126:	66 90                	xchg   %ax,%ax

0000000000007128 <realloc@plt>:
    7128:	ff 25 d2 2d 05 00    	jmpq   *0x52dd2(%rip)        # 59f00 <realloc@GLIBC_2.2.5>
    712e:	66 90                	xchg   %ax,%ax

0000000000007130 <memcpy@plt>:
    7130:	ff 25 52 2e 05 00    	jmpq   *0x52e52(%rip)        # 59f88 <memcpy@GLIBC_2.14>
    7136:	66 90                	xchg   %ax,%ax

0000000000007138 <mmap@plt>:
    7138:	ff 25 62 2e 05 00    	jmpq   *0x52e62(%rip)        # 59fa0 <mmap@GLIBC_2.2.5>
    713e:	66 90                	xchg   %ax,%ax

Дизассемблирование раздела .text:

0000000000007140 <_start>:
    7140:	f3 0f 1e fa          	endbr64 
    7144:	31 ed                	xor    %ebp,%ebp
    7146:	49 89 d1             	mov    %rdx,%r9
    7149:	5e                   	pop    %rsi
    714a:	48 89 e2             	mov    %rsp,%rdx
    714d:	48 83 e4 f0          	and    $0xfffffffffffffff0,%rsp
    7151:	50                   	push   %rax
    7152:	54                   	push   %rsp
    7153:	4c 8d 05 b6 c6 03 00 	lea    0x3c6b6(%rip),%r8        # 43810 <__libc_csu_fini>
    715a:	48 8d 0d 3f c6 03 00 	lea    0x3c63f(%rip),%rcx        # 437a0 <__libc_csu_init>
    7161:	48 8d 3d 68 03 00 00 	lea    0x368(%rip),%rdi        # 74d0 <main>
    7168:	ff 15 3a 28 05 00    	callq  *0x5283a(%rip)        # 599a8 <__libc_start_main@GLIBC_2.2.5>
    716e:	f4                   	hlt    
    716f:	90                   	nop

0000000000007170 <deregister_tm_clones>:
    7170:	48 8d 3d d1 2e 05 00 	lea    0x52ed1(%rip),%rdi        # 5a048 <__TMC_END__>
    7177:	48 8d 05 ca 2e 05 00 	lea    0x52eca(%rip),%rax        # 5a048 <__TMC_END__>
    717e:	48 39 f8             	cmp    %rdi,%rax
    7181:	74 15                	je     7198 <deregister_tm_clones+0x28>
    7183:	48 8b 05 f6 28 05 00 	mov    0x528f6(%rip),%rax        # 59a80 <_ITM_deregisterTMCloneTable>
    718a:	48 85 c0             	test   %rax,%rax
    718d:	74 09                	je     7198 <deregister_tm_clones+0x28>
    718f:	ff e0                	jmpq   *%rax
    7191:	0f 1f 80 00 00 00 00 	nopl   0x0(%rax)
    7198:	c3                   	retq   
    7199:	0f 1f 80 00 00 00 00 	nopl   0x0(%rax)

00000000000071a0 <register_tm_clones>:
    71a0:	48 8d 3d a1 2e 05 00 	lea    0x52ea1(%rip),%rdi        # 5a048 <__TMC_END__>
    71a7:	48 8d 35 9a 2e 05 00 	lea    0x52e9a(%rip),%rsi        # 5a048 <__TMC_END__>
    71ae:	48 29 fe             	sub    %rdi,%rsi
    71b1:	48 89 f0             	mov    %rsi,%rax
    71b4:	48 c1 ee 3f          	shr    $0x3f,%rsi
    71b8:	48 c1 f8 03          	sar    $0x3,%rax
    71bc:	48 01 c6             	add    %rax,%rsi
    71bf:	48 d1 fe             	sar    %rsi
    71c2:	74 14                	je     71d8 <register_tm_clones+0x38>
    71c4:	48 8b 05 05 29 05 00 	mov    0x52905(%rip),%rax        # 59ad0 <_ITM_registerTMCloneTable>
    71cb:	48 85 c0             	test   %rax,%rax
    71ce:	74 08                	je     71d8 <register_tm_clones+0x38>
    71d0:	ff e0                	jmpq   *%rax
    71d2:	66 0f 1f 44 00 00    	nopw   0x0(%rax,%rax,1)
    71d8:	c3                   	retq   
    71d9:	0f 1f 80 00 00 00 00 	nopl   0x0(%rax)

00000000000071e0 <__do_global_dtors_aux>:
    71e0:	f3 0f 1e fa          	endbr64 
    71e4:	80 3d 5d 2e 05 00 00 	cmpb   $0x0,0x52e5d(%rip)        # 5a048 <__TMC_END__>
    71eb:	75 33                	jne    7220 <__do_global_dtors_aux+0x40>
    71ed:	55                   	push   %rbp
    71ee:	48 83 3d 1a 29 05 00 	cmpq   $0x0,0x5291a(%rip)        # 59b10 <__cxa_finalize@GLIBC_2.2.5>
    71f5:	00 
    71f6:	48 89 e5             	mov    %rsp,%rbp
    71f9:	74 0d                	je     7208 <__do_global_dtors_aux+0x28>
    71fb:	48 8b 3d fe 2d 05 00 	mov    0x52dfe(%rip),%rdi        # 5a000 <__dso_handle>
    7202:	ff 15 08 29 05 00    	callq  *0x52908(%rip)        # 59b10 <__cxa_finalize@GLIBC_2.2.5>
    7208:	e8 63 ff ff ff       	callq  7170 <deregister_tm_clones>
    720d:	c6 05 34 2e 05 00 01 	movb   $0x1,0x52e34(%rip)        # 5a048 <__TMC_END__>
    7214:	5d                   	pop    %rbp
    7215:	c3                   	retq   
    7216:	66 2e 0f 1f 84 00 00 	nopw   %cs:0x0(%rax,%rax,1)
    721d:	00 00 00 
    7220:	c3                   	retq   
    7221:	66 66 2e 0f 1f 84 00 	data16 nopw %cs:0x0(%rax,%rax,1)
    7228:	00 00 00 00 
    722c:	0f 1f 40 00          	nopl   0x0(%rax)

0000000000007230 <frame_dummy>:
    7230:	f3 0f 1e fa          	endbr64 
    7234:	e9 67 ff ff ff       	jmpq   71a0 <register_tm_clones>
    7239:	0f 1f 80 00 00 00 00 	nopl   0x0(%rax)

0000000000007240 <_ZN36_$LT$T$u20$as$u20$core..any..Any$GT$7type_id17h12dabe7832717f52E>:
    7240:	48 b8 64 97 b0 70 d9 	movabs $0x111094d970b09764,%rax
    7247:	94 10 11 
    724a:	c3                   	retq   
    724b:	0f 1f 44 00 00       	nopl   0x0(%rax,%rax,1)

0000000000007250 <_ZN3std2rt10lang_start28_$u7b$$u7b$closure$u7d$$u7d$17haaa1c3f01d23b478E>:
    7250:	50                   	push   %rax
    7251:	ff 17                	callq  *(%rdi)
    7253:	31 c0                	xor    %eax,%eax
    7255:	59                   	pop    %rcx
    7256:	c3                   	retq   
    7257:	66 0f 1f 84 00 00 00 	nopw   0x0(%rax,%rax,1)
    725e:	00 00 

0000000000007260 <_ZN3std9panicking11begin_panic17h9bf632b447efa4b1E>:
    7260:	48 83 ec 18          	sub    $0x18,%rsp
    7264:	48 8d 05 95 cd 03 00 	lea    0x3cd95(%rip),%rax        # 44000 <_fini+0x7e8>
    726b:	48 89 44 24 08       	mov    %rax,0x8(%rsp)
    7270:	48 c7 44 24 10 0e 00 	movq   $0xe,0x10(%rsp)
    7277:	00 00 
    7279:	48 8d 3d 50 fd 04 00 	lea    0x4fd50(%rip),%rdi        # 56fd0 <__do_global_dtors_aux_fini_array_entry+0x80>
    7280:	ff 15 fa 26 05 00    	callq  *0x526fa(%rip)        # 59980 <_GLOBAL_OFFSET_TABLE_+0x200>
    7286:	48 8d 35 fb fc 04 00 	lea    0x4fcfb(%rip),%rsi        # 56f88 <__do_global_dtors_aux_fini_array_entry+0x38>
    728d:	48 8d 7c 24 08       	lea    0x8(%rsp),%rdi
    7292:	31 d2                	xor    %edx,%edx
    7294:	48 89 c1             	mov    %rax,%rcx
    7297:	ff 15 a3 29 05 00    	callq  *0x529a3(%rip)        # 59c40 <_GLOBAL_OFFSET_TABLE_+0x4c0>
    729d:	0f 0b                	ud2    
    729f:	90                   	nop

00000000000072a0 <_ZN4core3ops8function6FnOnce40call_once$u7b$$u7b$vtable.shim$u7d$$u7d$17h4cc631a82b97ec79E>:
    72a0:	50                   	push   %rax
    72a1:	ff 17                	callq  *(%rdi)
    72a3:	31 c0                	xor    %eax,%eax
    72a5:	59                   	pop    %rcx
    72a6:	c3                   	retq   
    72a7:	66 0f 1f 84 00 00 00 	nopw   0x0(%rax,%rax,1)
    72ae:	00 00 

00000000000072b0 <_ZN4core3ptr13drop_in_place17h681d9c208f823d96E>:
    72b0:	48 8b 77 08          	mov    0x8(%rdi),%rsi
    72b4:	48 85 f6             	test   %rsi,%rsi
    72b7:	74 0e                	je     72c7 <_ZN4core3ptr13drop_in_place17h681d9c208f823d96E+0x17>
    72b9:	48 8b 3f             	mov    (%rdi),%rdi
    72bc:	ba 01 00 00 00       	mov    $0x1,%edx
    72c1:	ff 25 a9 27 05 00    	jmpq   *0x527a9(%rip)        # 59a70 <_GLOBAL_OFFSET_TABLE_+0x2f0>
    72c7:	c3                   	retq   
    72c8:	0f 1f 84 00 00 00 00 	nopl   0x0(%rax,%rax,1)
    72cf:	00 

00000000000072d0 <_ZN4core3ptr13drop_in_place17h7c8a1d6928b94893E>:
    72d0:	c3                   	retq   
    72d1:	66 2e 0f 1f 84 00 00 	nopw   %cs:0x0(%rax,%rax,1)
    72d8:	00 00 00 
    72db:	0f 1f 44 00 00       	nopl   0x0(%rax,%rax,1)

00000000000072e0 <_ZN91_$LT$std..panicking..begin_panic..PanicPayload$LT$A$GT$$u20$as$u20$core..panic..BoxMeUp$GT$3get17hb7521753d6b97108E>:
    72e0:	50                   	push   %rax
    72e1:	48 83 3f 00          	cmpq   $0x0,(%rdi)
    72e5:	74 0c                	je     72f3 <_ZN91_$LT$std..panicking..begin_panic..PanicPayload$LT$A$GT$$u20$as$u20$core..panic..BoxMeUp$GT$3get17hb7521753d6b97108E+0x13>
    72e7:	48 89 f8             	mov    %rdi,%rax
    72ea:	48 8d 15 bf fc 04 00 	lea    0x4fcbf(%rip),%rdx        # 56fb0 <__do_global_dtors_aux_fini_array_entry+0x60>
    72f1:	59                   	pop    %rcx
    72f2:	c3                   	retq   
    72f3:	ff 15 27 28 05 00    	callq  *0x52827(%rip)        # 59b20 <_GLOBAL_OFFSET_TABLE_+0x3a0>
    72f9:	0f 0b                	ud2    
    72fb:	0f 1f 44 00 00       	nopl   0x0(%rax,%rax,1)

0000000000007300 <_ZN91_$LT$std..panicking..begin_panic..PanicPayload$LT$A$GT$$u20$as$u20$core..panic..BoxMeUp$GT$8take_box17h6a7efb8fae5643eeE>:
    7300:	41 56                	push   %r14
    7302:	53                   	push   %rbx
    7303:	50                   	push   %rax
    7304:	48 8b 1f             	mov    (%rdi),%rbx
    7307:	4c 8b 77 08          	mov    0x8(%rdi),%r14
    730b:	48 c7 07 00 00 00 00 	movq   $0x0,(%rdi)
    7312:	48 85 db             	test   %rbx,%rbx
    7315:	74 2b                	je     7342 <_ZN91_$LT$std..panicking..begin_panic..PanicPayload$LT$A$GT$$u20$as$u20$core..panic..BoxMeUp$GT$8take_box17h6a7efb8fae5643eeE+0x42>
    7317:	bf 10 00 00 00       	mov    $0x10,%edi
    731c:	be 08 00 00 00       	mov    $0x8,%esi
    7321:	ff 15 81 29 05 00    	callq  *0x52981(%rip)        # 59ca8 <_GLOBAL_OFFSET_TABLE_+0x528>
    7327:	48 85 c0             	test   %rax,%rax
    732a:	74 1e                	je     734a <_ZN91_$LT$std..panicking..begin_panic..PanicPayload$LT$A$GT$$u20$as$u20$core..panic..BoxMeUp$GT$8take_box17h6a7efb8fae5643eeE+0x4a>
    732c:	48 89 18             	mov    %rbx,(%rax)
    732f:	4c 89 70 08          	mov    %r14,0x8(%rax)
    7333:	48 8d 15 76 fc 04 00 	lea    0x4fc76(%rip),%rdx        # 56fb0 <__do_global_dtors_aux_fini_array_entry+0x60>
    733a:	48 83 c4 08          	add    $0x8,%rsp
    733e:	5b                   	pop    %rbx
    733f:	41 5e                	pop    %r14
    7341:	c3                   	retq   
    7342:	ff 15 d8 27 05 00    	callq  *0x527d8(%rip)        # 59b20 <_GLOBAL_OFFSET_TABLE_+0x3a0>
    7348:	0f 0b                	ud2    
    734a:	bf 10 00 00 00       	mov    $0x10,%edi
    734f:	be 08 00 00 00       	mov    $0x8,%esi
    7354:	ff 15 d6 25 05 00    	callq  *0x525d6(%rip)        # 59930 <_GLOBAL_OFFSET_TABLE_+0x1b0>
    735a:	0f 0b                	ud2    
    735c:	0f 1f 40 00          	nopl   0x0(%rax)

0000000000007360 <_ZN6jlight4main17hdc1925274d699bdbE>:
    7360:	53                   	push   %rbx
    7361:	48 81 ec e0 01 00 00 	sub    $0x1e0,%rsp
    7368:	48 8d 9c 24 a0 00 00 	lea    0xa0(%rsp),%rbx
    736f:	00 
    7370:	48 89 df             	mov    %rbx,%rdi
    7373:	ff 15 57 25 05 00    	callq  *0x52557(%rip)        # 598d0 <_GLOBAL_OFFSET_TABLE_+0x150>
    7379:	48 89 df             	mov    %rbx,%rdi
    737c:	be 2a 00 00 00       	mov    $0x2a,%esi
    7381:	ff 15 81 24 05 00    	callq  *0x52481(%rip)        # 59808 <_GLOBAL_OFFSET_TABLE_+0x88>
    7387:	48 8d bc 24 a0 00 00 	lea    0xa0(%rsp),%rdi
    738e:	00 
    738f:	ff 15 63 25 05 00    	callq  *0x52563(%rip)        # 598f8 <_GLOBAL_OFFSET_TABLE_+0x178>
    7395:	48 8d bc 24 58 01 00 	lea    0x158(%rsp),%rdi
    739c:	00 
    739d:	31 f6                	xor    %esi,%esi
    739f:	31 d2                	xor    %edx,%edx
    73a1:	ff 15 b9 28 05 00    	callq  *0x528b9(%rip)        # 59c60 <_GLOBAL_OFFSET_TABLE_+0x4e0>
    73a7:	48 8d 9c 24 d0 00 00 	lea    0xd0(%rsp),%rbx
    73ae:	00 
    73af:	48 8d b4 24 58 01 00 	lea    0x158(%rsp),%rsi
    73b6:	00 
    73b7:	ba 88 00 00 00       	mov    $0x88,%edx
    73bc:	48 89 df             	mov    %rbx,%rdi
    73bf:	ff 15 c3 2b 05 00    	callq  *0x52bc3(%rip)        # 59f88 <memcpy@GLIBC_2.14>
    73c5:	48 8b 84 24 a0 00 00 	mov    0xa0(%rsp),%rax
    73cc:	00 
    73cd:	b9 11 00 00 00       	mov    $0x11,%ecx
    73d2:	48 89 e7             	mov    %rsp,%rdi
    73d5:	48 89 de             	mov    %rbx,%rsi
    73d8:	f3 48 a5             	rep movsq %ds:(%rsi),%es:(%rdi)
    73db:	31 ff                	xor    %edi,%edi
    73dd:	48 89 c6             	mov    %rax,%rsi
    73e0:	ff 15 5a 2a 05 00    	callq  *0x52a5a(%rip)        # 59e40 <_GLOBAL_OFFSET_TABLE_+0x6c0>
    73e6:	48 85 c0             	test   %rax,%rax
    73e9:	0f 85 b8 00 00 00    	jne    74a7 <_ZN6jlight4main17hdc1925274d699bdbE+0x147>
    73ef:	48 89 94 24 90 00 00 	mov    %rdx,0x90(%rsp)
    73f6:	00 
    73f7:	48 8d bc 24 90 00 00 	lea    0x90(%rsp),%rdi
    73fe:	00 
    73ff:	ff 15 03 2a 05 00    	callq  *0x52a03(%rip)        # 59e08 <_GLOBAL_OFFSET_TABLE_+0x688>
    7405:	f2 0f 11 84 24 98 00 	movsd  %xmm0,0x98(%rsp)
    740c:	00 00 
    740e:	48 8d 84 24 98 00 00 	lea    0x98(%rsp),%rax
    7415:	00 
    7416:	48 89 84 24 c0 00 00 	mov    %rax,0xc0(%rsp)
    741d:	00 
    741e:	48 8d 05 3b a9 03 00 	lea    0x3a93b(%rip),%rax        # 41d60 <_ZN4core3fmt5float52_$LT$impl$u20$core..fmt..Display$u20$for$u20$f64$GT$3fmt17heb0dbd4517a4c0dbE>
    7425:	48 89 84 24 c8 00 00 	mov    %rax,0xc8(%rsp)
    742c:	00 
    742d:	48 8d 05 b4 fb 04 00 	lea    0x4fbb4(%rip),%rax        # 56fe8 <__do_global_dtors_aux_fini_array_entry+0x98>
    7434:	48 89 84 24 d0 00 00 	mov    %rax,0xd0(%rsp)
    743b:	00 
    743c:	48 c7 84 24 d8 00 00 	movq   $0x2,0xd8(%rsp)
    7443:	00 02 00 00 00 
    7448:	48 c7 84 24 e0 00 00 	movq   $0x0,0xe0(%rsp)
    744f:	00 00 00 00 00 
    7454:	48 8d 84 24 c0 00 00 	lea    0xc0(%rsp),%rax
    745b:	00 
    745c:	48 89 84 24 f0 00 00 	mov    %rax,0xf0(%rsp)
    7463:	00 
    7464:	48 c7 84 24 f8 00 00 	movq   $0x1,0xf8(%rsp)
    746b:	00 01 00 00 00 
    7470:	48 8d bc 24 d0 00 00 	lea    0xd0(%rsp),%rdi
    7477:	00 
    7478:	ff 15 62 29 05 00    	callq  *0x52962(%rip)        # 59de0 <_GLOBAL_OFFSET_TABLE_+0x660>
    747e:	48 8b b4 24 a8 00 00 	mov    0xa8(%rsp),%rsi
    7485:	00 
    7486:	48 85 f6             	test   %rsi,%rsi
    7489:	74 13                	je     749e <_ZN6jlight4main17hdc1925274d699bdbE+0x13e>
    748b:	48 8b bc 24 a0 00 00 	mov    0xa0(%rsp),%rdi
    7492:	00 
    7493:	ba 01 00 00 00       	mov    $0x1,%edx
    7498:	ff 15 d2 25 05 00    	callq  *0x525d2(%rip)        # 59a70 <_GLOBAL_OFFSET_TABLE_+0x2f0>
    749e:	48 81 c4 e0 01 00 00 	add    $0x1e0,%rsp
    74a5:	5b                   	pop    %rbx
    74a6:	c3                   	retq   
    74a7:	e8 b4 fd ff ff       	callq  7260 <_ZN3std9panicking11begin_panic17h9bf632b447efa4b1E>
    74ac:	0f 0b                	ud2    
    74ae:	48 89 c3             	mov    %rax,%rbx
    74b1:	48 8d bc 24 a0 00 00 	lea    0xa0(%rsp),%rdi
    74b8:	00 
    74b9:	e8 f2 fd ff ff       	callq  72b0 <_ZN4core3ptr13drop_in_place17h681d9c208f823d96E>
    74be:	48 89 df             	mov    %rbx,%rdi
    74c1:	e8 fa fb ff ff       	callq  70c0 <_Unwind_Resume@plt>
    74c6:	0f 0b                	ud2    
    74c8:	0f 1f 84 00 00 00 00 	nopl   0x0(%rax,%rax,1)
    74cf:	00 

00000000000074d0 <main>:
    74d0:	50                   	push   %rax
    74d1:	48 89 f1             	mov    %rsi,%rcx
    74d4:	48 63 d7             	movslq %edi,%rdx
    74d7:	48 8d 05 82 fe ff ff 	lea    -0x17e(%rip),%rax        # 7360 <_ZN6jlight4main17hdc1925274d699bdbE>
    74de:	48 89 04 24          	mov    %rax,(%rsp)
    74e2:	48 8d 35 6f fa 04 00 	lea    0x4fa6f(%rip),%rsi        # 56f58 <__do_global_dtors_aux_fini_array_entry+0x8>
    74e9:	48 89 e7             	mov    %rsp,%rdi
    74ec:	ff 15 0e 25 05 00    	callq  *0x5250e(%rip)        # 59a00 <_GLOBAL_OFFSET_TABLE_+0x280>
    74f2:	59                   	pop    %rcx
    74f3:	c3                   	retq   
    74f4:	66 2e 0f 1f 84 00 00 	nopw   %cs:0x0(%rax,%rax,1)
    74fb:	00 00 00 
    74fe:	66 90                	xchg   %ax,%ax

0000000000007500 <__rust_alloc>:
    7500:	e9 db 66 01 00       	jmpq   1dbe0 <__rdl_alloc>
    7505:	66 2e 0f 1f 84 00 00 	nopw   %cs:0x0(%rax,%rax,1)
    750c:	00 00 00 
    750f:	90                   	nop

0000000000007510 <__rust_dealloc>:
    7510:	e9 1b 67 01 00       	jmpq   1dc30 <__rdl_dealloc>
    7515:	66 2e 0f 1f 84 00 00 	nopw   %cs:0x0(%rax,%rax,1)
    751c:	00 00 00 
    751f:	90                   	nop

0000000000007520 <__rust_realloc>:
    7520:	e9 1b 67 01 00       	jmpq   1dc40 <__rdl_realloc>
    7525:	66 2e 0f 1f 84 00 00 	nopw   %cs:0x0(%rax,%rax,1)
    752c:	00 00 00 
    752f:	90                   	nop

0000000000007530 <_ZN36_$LT$T$u20$as$u20$core..any..Any$GT$7type_id17h3509a269ea7a8c26E>:
    7530:	48 b8 64 97 b0 70 d9 	movabs $0x111094d970b09764,%rax
    7537:	94 10 11 
    753a:	c3                   	retq   
    753b:	0f 1f 44 00 00       	nopl   0x0(%rax,%rax,1)

0000000000007540 <_ZN3may5local17LocalKey$LT$T$GT$4with28_$u7b$$u7b$closure$u7d$$u7d$17h307389ebedcb8fd7E>:
    7540:	55                   	push   %rbp
    7541:	41 57                	push   %r15
    7543:	41 56                	push   %r14
    7545:	41 55                	push   %r13
    7547:	41 54                	push   %r12
    7549:	53                   	push   %rbx
    754a:	48 81 ec 08 01 00 00 	sub    $0x108,%rsp
    7551:	48 83 3a 00          	cmpq   $0x0,(%rdx)
    7555:	0f 85 e4 01 00 00    	jne    773f <_ZN3may5local17LocalKey$LT$T$GT$4with28_$u7b$$u7b$closure$u7d$$u7d$17h307389ebedcb8fd7E+0x1ff>
    755b:	49 89 d7             	mov    %rdx,%r15
    755e:	48 89 f5             	mov    %rsi,%rbp
    7561:	48 c7 02 ff ff ff ff 	movq   $0xffffffffffffffff,(%rdx)
    7568:	4c 8d 6a 08          	lea    0x8(%rdx),%r13
    756c:	4c 89 6c 24 08       	mov    %r13,0x8(%rsp)
    7571:	48 89 54 24 10       	mov    %rdx,0x10(%rsp)
    7576:	4c 8b 37             	mov    (%rdi),%r14
    7579:	ff 15 79 24 05 00    	callq  *0x52479(%rip)        # 599f8 <_GLOBAL_OFFSET_TABLE_+0x278>
    757f:	48 89 44 24 18       	mov    %rax,0x18(%rsp)
    7584:	48 8d 7c 24 18       	lea    0x18(%rsp),%rdi
    7589:	4c 89 f6             	mov    %r14,%rsi
    758c:	ff 15 ce 29 05 00    	callq  *0x529ce(%rip)        # 59f60 <_GLOBAL_OFFSET_TABLE_+0x7e0>
    7592:	48 8d 7c 24 18       	lea    0x18(%rsp),%rdi
    7597:	ff 15 1b 27 05 00    	callq  *0x5271b(%rip)        # 59cb8 <_GLOBAL_OFFSET_TABLE_+0x538>
    759d:	48 89 c3             	mov    %rax,%rbx
    75a0:	49 89 eb             	mov    %rbp,%r11
    75a3:	4d 8b 4f 08          	mov    0x8(%r15),%r9
    75a7:	4d 8b 47 10          	mov    0x10(%r15),%r8
    75ab:	49 89 c4             	mov    %rax,%r12
    75ae:	49 c1 ec 39          	shr    $0x39,%r12
    75b2:	66 41 0f 6e c4       	movd   %r12d,%xmm0
    75b7:	66 0f 60 c0          	punpcklbw %xmm0,%xmm0
    75bb:	f2 0f 70 c0 e0       	pshuflw $0xe0,%xmm0,%xmm0
    75c0:	66 0f 70 c0 00       	pshufd $0x0,%xmm0,%xmm0
    75c5:	4d 8b 57 18          	mov    0x18(%r15),%r10
    75c9:	31 f6                	xor    %esi,%esi
    75cb:	66 0f 76 c9          	pcmpeqd %xmm1,%xmm1
    75cf:	48 89 c5             	mov    %rax,%rbp
    75d2:	48 89 ef             	mov    %rbp,%rdi
    75d5:	4c 21 cf             	and    %r9,%rdi
    75d8:	48 8d 2c 3e          	lea    (%rsi,%rdi,1),%rbp
    75dc:	48 83 c5 10          	add    $0x10,%rbp
    75e0:	48 83 c6 10          	add    $0x10,%rsi
    75e4:	f3 41 0f 6f 14 38    	movdqu (%r8,%rdi,1),%xmm2
    75ea:	66 0f 6f da          	movdqa %xmm2,%xmm3
    75ee:	66 0f 74 d8          	pcmpeqb %xmm0,%xmm3
    75f2:	66 0f d7 cb          	pmovmskb %xmm3,%ecx
    75f6:	66 85 c9             	test   %cx,%cx
    75f9:	74 24                	je     761f <_ZN3may5local17LocalKey$LT$T$GT$4with28_$u7b$$u7b$closure$u7d$$u7d$17h307389ebedcb8fd7E+0xdf>
    75fb:	66 0f bc c1          	bsf    %cx,%ax
    75ff:	0f b7 c0             	movzwl %ax,%eax
    7602:	8d 51 ff             	lea    -0x1(%rcx),%edx
    7605:	21 ca                	and    %ecx,%edx
    7607:	48 01 f8             	add    %rdi,%rax
    760a:	4c 21 c8             	and    %r9,%rax
    760d:	48 8d 04 40          	lea    (%rax,%rax,2),%rax
    7611:	89 d1                	mov    %edx,%ecx
    7613:	4d 39 34 c2          	cmp    %r14,(%r10,%rax,8)
    7617:	0f 84 ed 00 00 00    	je     770a <_ZN3may5local17LocalKey$LT$T$GT$4with28_$u7b$$u7b$closure$u7d$$u7d$17h307389ebedcb8fd7E+0x1ca>
    761d:	eb d7                	jmp    75f6 <_ZN3may5local17LocalKey$LT$T$GT$4with28_$u7b$$u7b$closure$u7d$$u7d$17h307389ebedcb8fd7E+0xb6>
    761f:	66 0f 74 d1          	pcmpeqb %xmm1,%xmm2
    7623:	66 0f d7 c2          	pmovmskb %xmm2,%eax
    7627:	66 85 c0             	test   %ax,%ax
    762a:	74 a6                	je     75d2 <_ZN3may5local17LocalKey$LT$T$GT$4with28_$u7b$$u7b$closure$u7d$$u7d$17h307389ebedcb8fd7E+0x92>
    762c:	4c 89 2c 24          	mov    %r13,(%rsp)
    7630:	49 83 7f 20 00       	cmpq   $0x0,0x20(%r15)
    7635:	4c 89 dd             	mov    %r11,%rbp
    7638:	75 10                	jne    764a <_ZN3may5local17LocalKey$LT$T$GT$4with28_$u7b$$u7b$closure$u7d$$u7d$17h307389ebedcb8fd7E+0x10a>
    763a:	48 8d 7c 24 18       	lea    0x18(%rsp),%rdi
    763f:	48 89 e2             	mov    %rsp,%rdx
    7642:	4c 89 ee             	mov    %r13,%rsi
    7645:	e8 86 25 00 00       	callq  9bd0 <_ZN9hashbrown3raw17RawTable$LT$T$GT$14reserve_rehash17hb290e1f3ec49d2b1E>
    764a:	48 8b 45 00          	mov    0x0(%rbp),%rax
    764e:	48 8d 7c 24 18       	lea    0x18(%rsp),%rdi
    7653:	ff 50 08             	callq  *0x8(%rax)
    7656:	bf f0 00 00 00       	mov    $0xf0,%edi
    765b:	be 08 00 00 00       	mov    $0x8,%esi
    7660:	ff 15 42 26 05 00    	callq  *0x52642(%rip)        # 59ca8 <_GLOBAL_OFFSET_TABLE_+0x528>
    7666:	48 85 c0             	test   %rax,%rax
    7669:	0f 84 f7 00 00 00    	je     7766 <_ZN3may5local17LocalKey$LT$T$GT$4with28_$u7b$$u7b$closure$u7d$$u7d$17h307389ebedcb8fd7E+0x226>
    766f:	48 89 c5             	mov    %rax,%rbp
    7672:	48 8d 74 24 18       	lea    0x18(%rsp),%rsi
    7677:	ba f0 00 00 00       	mov    $0xf0,%edx
    767c:	48 89 c7             	mov    %rax,%rdi
    767f:	ff 15 03 29 05 00    	callq  *0x52903(%rip)        # 59f88 <memcpy@GLIBC_2.14>
    7685:	49 8b 4f 08          	mov    0x8(%r15),%rcx
    7689:	49 8b 47 10          	mov    0x10(%r15),%rax
    768d:	31 f6                	xor    %esi,%esi
    768f:	90                   	nop
    7690:	48 89 da             	mov    %rbx,%rdx
    7693:	48 21 ca             	and    %rcx,%rdx
    7696:	f3 0f 6f 04 10       	movdqu (%rax,%rdx,1),%xmm0
    769b:	66 0f d7 f8          	pmovmskb %xmm0,%edi
    769f:	48 8d 1c 16          	lea    (%rsi,%rdx,1),%rbx
    76a3:	48 83 c3 10          	add    $0x10,%rbx
    76a7:	48 83 c6 10          	add    $0x10,%rsi
    76ab:	66 85 ff             	test   %di,%di
    76ae:	74 e0                	je     7690 <_ZN3may5local17LocalKey$LT$T$GT$4with28_$u7b$$u7b$closure$u7d$$u7d$17h307389ebedcb8fd7E+0x150>
    76b0:	66 0f bc f7          	bsf    %di,%si
    76b4:	0f b7 f6             	movzwl %si,%esi
    76b7:	48 01 f2             	add    %rsi,%rdx
    76ba:	48 21 ca             	and    %rcx,%rdx
    76bd:	8a 1c 10             	mov    (%rax,%rdx,1),%bl
    76c0:	84 db                	test   %bl,%bl
    76c2:	79 67                	jns    772b <_ZN3may5local17LocalKey$LT$T$GT$4with28_$u7b$$u7b$closure$u7d$$u7d$17h307389ebedcb8fd7E+0x1eb>
    76c4:	49 8b 77 18          	mov    0x18(%r15),%rsi
    76c8:	48 8d 3c 52          	lea    (%rdx,%rdx,2),%rdi
    76cc:	80 e3 01             	and    $0x1,%bl
    76cf:	0f b6 db             	movzbl %bl,%ebx
    76d2:	49 29 5f 20          	sub    %rbx,0x20(%r15)
    76d6:	48 8d 5a f0          	lea    -0x10(%rdx),%rbx
    76da:	48 21 cb             	and    %rcx,%rbx
    76dd:	44 88 24 10          	mov    %r12b,(%rax,%rdx,1)
    76e1:	44 88 64 03 10       	mov    %r12b,0x10(%rbx,%rax,1)
    76e6:	4c 89 34 fe          	mov    %r14,(%rsi,%rdi,8)
    76ea:	48 8d 04 fe          	lea    (%rsi,%rdi,8),%rax
    76ee:	48 83 c0 08          	add    $0x8,%rax
    76f2:	48 89 6c fe 08       	mov    %rbp,0x8(%rsi,%rdi,8)
    76f7:	48 8d 0d 0a f9 04 00 	lea    0x4f90a(%rip),%rcx        # 57008 <__do_global_dtors_aux_fini_array_entry+0xb8>
    76fe:	48 89 4c fe 10       	mov    %rcx,0x10(%rsi,%rdi,8)
    7703:	49 83 47 28 01       	addq   $0x1,0x28(%r15)
    7708:	eb 08                	jmp    7712 <_ZN3may5local17LocalKey$LT$T$GT$4with28_$u7b$$u7b$closure$u7d$$u7d$17h307389ebedcb8fd7E+0x1d2>
    770a:	49 8d 04 c2          	lea    (%r10,%rax,8),%rax
    770e:	48 83 c0 08          	add    $0x8,%rax
    7712:	48 8b 00             	mov    (%rax),%rax
    7715:	49 83 07 01          	addq   $0x1,(%r15)
    7719:	48 81 c4 08 01 00 00 	add    $0x108,%rsp
    7720:	5b                   	pop    %rbx
    7721:	41 5c                	pop    %r12
    7723:	41 5d                	pop    %r13
    7725:	41 5e                	pop    %r14
    7727:	41 5f                	pop    %r15
    7729:	5d                   	pop    %rbp
    772a:	c3                   	retq   
    772b:	66 0f 6f 00          	movdqa (%rax),%xmm0
    772f:	66 0f d7 d0          	pmovmskb %xmm0,%edx
    7733:	66 0f bc d2          	bsf    %dx,%dx
    7737:	0f b7 d2             	movzwl %dx,%edx
    773a:	8a 1c 10             	mov    (%rax,%rdx,1),%bl
    773d:	eb 85                	jmp    76c4 <_ZN3may5local17LocalKey$LT$T$GT$4with28_$u7b$$u7b$closure$u7d$$u7d$17h307389ebedcb8fd7E+0x184>
    773f:	48 8d 3d 1a c9 03 00 	lea    0x3c91a(%rip),%rdi        # 44060 <_fini+0x848>
    7746:	48 8d 0d 9b f9 04 00 	lea    0x4f99b(%rip),%rcx        # 570e8 <__do_global_dtors_aux_fini_array_entry+0x198>
    774d:	4c 8d 05 7c f9 04 00 	lea    0x4f97c(%rip),%r8        # 570d0 <__do_global_dtors_aux_fini_array_entry+0x180>
    7754:	48 8d 54 24 18       	lea    0x18(%rsp),%rdx
    7759:	be 10 00 00 00       	mov    $0x10,%esi
    775e:	ff 15 9c 21 05 00    	callq  *0x5219c(%rip)        # 59900 <_GLOBAL_OFFSET_TABLE_+0x180>
    7764:	0f 0b                	ud2    
    7766:	bf f0 00 00 00       	mov    $0xf0,%edi
    776b:	be 08 00 00 00       	mov    $0x8,%esi
    7770:	ff 15 ba 21 05 00    	callq  *0x521ba(%rip)        # 59930 <_GLOBAL_OFFSET_TABLE_+0x1b0>
    7776:	0f 0b                	ud2    
    7778:	48 89 c3             	mov    %rax,%rbx
    777b:	eb 0d                	jmp    778a <_ZN3may5local17LocalKey$LT$T$GT$4with28_$u7b$$u7b$closure$u7d$$u7d$17h307389ebedcb8fd7E+0x24a>
    777d:	48 89 c3             	mov    %rax,%rbx
    7780:	48 8d 7c 24 08       	lea    0x8(%rsp),%rdi
    7785:	e8 56 02 00 00       	callq  79e0 <_ZN4core3ptr13drop_in_place17h08b146a9bda878e3E>
    778a:	48 89 df             	mov    %rbx,%rdi
    778d:	e8 2e f9 ff ff       	callq  70c0 <_Unwind_Resume@plt>
    7792:	0f 0b                	ud2    
    7794:	66 2e 0f 1f 84 00 00 	nopw   %cs:0x0(%rax,%rax,1)
    779b:	00 00 00 
    779e:	66 90                	xchg   %ax,%ax

00000000000077a0 <_ZN3std11collections4hash3map24HashMap$LT$K$C$V$C$S$GT$6insert17h35c3a09267c5e3e2E>:
    77a0:	55                   	push   %rbp
    77a1:	41 57                	push   %r15
    77a3:	41 56                	push   %r14
    77a5:	41 55                	push   %r13
    77a7:	41 54                	push   %r12
    77a9:	53                   	push   %rbx
    77aa:	48 83 ec 28          	sub    $0x28,%rsp
    77ae:	49 89 f7             	mov    %rsi,%r15
    77b1:	49 89 fc             	mov    %rdi,%r12
    77b4:	49 bd 95 0a 22 27 b7 	movabs $0x517cc1b727220a95,%r13
    77bb:	c1 7c 51 
    77be:	4c 0f af ee          	imul   %rsi,%r13
    77c2:	4c 8b 0f             	mov    (%rdi),%r9
    77c5:	4c 8b 47 08          	mov    0x8(%rdi),%r8
    77c9:	4d 89 ee             	mov    %r13,%r14
    77cc:	49 c1 ee 39          	shr    $0x39,%r14
    77d0:	66 41 0f 6e c6       	movd   %r14d,%xmm0
    77d5:	66 0f 60 c0          	punpcklbw %xmm0,%xmm0
    77d9:	f2 0f 70 c0 e0       	pshuflw $0xe0,%xmm0,%xmm0
    77de:	66 0f 70 c0 00       	pshufd $0x0,%xmm0,%xmm0
    77e3:	48 8b 5f 10          	mov    0x10(%rdi),%rbx
    77e7:	31 f6                	xor    %esi,%esi
    77e9:	66 0f 76 c9          	pcmpeqd %xmm1,%xmm1
    77ed:	4d 89 ea             	mov    %r13,%r10
    77f0:	4c 89 d7             	mov    %r10,%rdi
    77f3:	4c 21 cf             	and    %r9,%rdi
    77f6:	4c 8d 14 3e          	lea    (%rsi,%rdi,1),%r10
    77fa:	49 83 c2 10          	add    $0x10,%r10
    77fe:	48 83 c6 10          	add    $0x10,%rsi
    7802:	f3 41 0f 6f 14 38    	movdqu (%r8,%rdi,1),%xmm2
    7808:	66 0f 6f da          	movdqa %xmm2,%xmm3
    780c:	66 0f 74 d8          	pcmpeqb %xmm0,%xmm3
    7810:	66 0f d7 eb          	pmovmskb %xmm3,%ebp
    7814:	66 85 ed             	test   %bp,%bp
    7817:	74 24                	je     783d <_ZN3std11collections4hash3map24HashMap$LT$K$C$V$C$S$GT$6insert17h35c3a09267c5e3e2E+0x9d>
    7819:	66 0f bc c5          	bsf    %bp,%ax
    781d:	0f b7 c0             	movzwl %ax,%eax
    7820:	8d 4d ff             	lea    -0x1(%rbp),%ecx
    7823:	21 e9                	and    %ebp,%ecx
    7825:	48 01 f8             	add    %rdi,%rax
    7828:	4c 21 c8             	and    %r9,%rax
    782b:	48 c1 e0 04          	shl    $0x4,%rax
    782f:	89 cd                	mov    %ecx,%ebp
    7831:	4c 39 3c 03          	cmp    %r15,(%rbx,%rax,1)
    7835:	0f 84 a1 00 00 00    	je     78dc <_ZN3std11collections4hash3map24HashMap$LT$K$C$V$C$S$GT$6insert17h35c3a09267c5e3e2E+0x13c>
    783b:	eb d7                	jmp    7814 <_ZN3std11collections4hash3map24HashMap$LT$K$C$V$C$S$GT$6insert17h35c3a09267c5e3e2E+0x74>
    783d:	66 0f 74 d1          	pcmpeqb %xmm1,%xmm2
    7841:	66 0f d7 c2          	pmovmskb %xmm2,%eax
    7845:	66 85 c0             	test   %ax,%ax
    7848:	74 a6                	je     77f0 <_ZN3std11collections4hash3map24HashMap$LT$K$C$V$C$S$GT$6insert17h35c3a09267c5e3e2E+0x50>
    784a:	4c 89 64 24 08       	mov    %r12,0x8(%rsp)
    784f:	31 c0                	xor    %eax,%eax
    7851:	4c 89 ee             	mov    %r13,%rsi
    7854:	66 2e 0f 1f 84 00 00 	nopw   %cs:0x0(%rax,%rax,1)
    785b:	00 00 00 
    785e:	66 90                	xchg   %ax,%ax
    7860:	48 89 f1             	mov    %rsi,%rcx
    7863:	4c 21 c9             	and    %r9,%rcx
    7866:	f3 41 0f 6f 04 08    	movdqu (%r8,%rcx,1),%xmm0
    786c:	66 0f d7 f8          	pmovmskb %xmm0,%edi
    7870:	48 8d 34 08          	lea    (%rax,%rcx,1),%rsi
    7874:	48 83 c6 10          	add    $0x10,%rsi
    7878:	48 83 c0 10          	add    $0x10,%rax
    787c:	66 85 ff             	test   %di,%di
    787f:	74 df                	je     7860 <_ZN3std11collections4hash3map24HashMap$LT$K$C$V$C$S$GT$6insert17h35c3a09267c5e3e2E+0xc0>
    7881:	66 0f bc c7          	bsf    %di,%ax
    7885:	0f b7 c0             	movzwl %ax,%eax
    7888:	48 01 c1             	add    %rax,%rcx
    788b:	4c 21 c9             	and    %r9,%rcx
    788e:	41 8a 1c 08          	mov    (%r8,%rcx,1),%bl
    7892:	84 db                	test   %bl,%bl
    7894:	0f 89 b5 00 00 00    	jns    794f <_ZN3std11collections4hash3map24HashMap$LT$K$C$V$C$S$GT$6insert17h35c3a09267c5e3e2E+0x1af>
    789a:	80 e3 01             	and    $0x1,%bl
    789d:	74 08                	je     78a7 <_ZN3std11collections4hash3map24HashMap$LT$K$C$V$C$S$GT$6insert17h35c3a09267c5e3e2E+0x107>
    789f:	49 83 7c 24 18 00    	cmpq   $0x0,0x18(%r12)
    78a5:	74 4b                	je     78f2 <_ZN3std11collections4hash3map24HashMap$LT$K$C$V$C$S$GT$6insert17h35c3a09267c5e3e2E+0x152>
    78a7:	49 8b 44 24 10       	mov    0x10(%r12),%rax
    78ac:	48 89 cf             	mov    %rcx,%rdi
    78af:	48 c1 e7 04          	shl    $0x4,%rdi
    78b3:	0f b6 f3             	movzbl %bl,%esi
    78b6:	49 29 74 24 18       	sub    %rsi,0x18(%r12)
    78bb:	48 8d 71 f0          	lea    -0x10(%rcx),%rsi
    78bf:	4c 21 ce             	and    %r9,%rsi
    78c2:	45 88 34 08          	mov    %r14b,(%r8,%rcx,1)
    78c6:	46 88 74 06 10       	mov    %r14b,0x10(%rsi,%r8,1)
    78cb:	4c 89 3c 38          	mov    %r15,(%rax,%rdi,1)
    78cf:	48 89 54 38 08       	mov    %rdx,0x8(%rax,%rdi,1)
    78d4:	49 83 44 24 20 01    	addq   $0x1,0x20(%r12)
    78da:	eb 07                	jmp    78e3 <_ZN3std11collections4hash3map24HashMap$LT$K$C$V$C$S$GT$6insert17h35c3a09267c5e3e2E+0x143>
    78dc:	48 01 c3             	add    %rax,%rbx
    78df:	48 89 53 08          	mov    %rdx,0x8(%rbx)
    78e3:	48 83 c4 28          	add    $0x28,%rsp
    78e7:	5b                   	pop    %rbx
    78e8:	41 5c                	pop    %r12
    78ea:	41 5d                	pop    %r13
    78ec:	41 5e                	pop    %r14
    78ee:	41 5f                	pop    %r15
    78f0:	5d                   	pop    %rbp
    78f1:	c3                   	retq   
    78f2:	48 89 d5             	mov    %rdx,%rbp
    78f5:	48 8d 7c 24 10       	lea    0x10(%rsp),%rdi
    78fa:	48 8d 54 24 08       	lea    0x8(%rsp),%rdx
    78ff:	4c 89 e6             	mov    %r12,%rsi
    7902:	e8 e9 1d 00 00       	callq  96f0 <_ZN9hashbrown3raw17RawTable$LT$T$GT$14reserve_rehash17h846ba36b5c0ea7e1E>
    7907:	4d 8b 0c 24          	mov    (%r12),%r9
    790b:	4d 8b 44 24 08       	mov    0x8(%r12),%r8
    7910:	31 c0                	xor    %eax,%eax
    7912:	4c 89 e9             	mov    %r13,%rcx
    7915:	4c 21 c9             	and    %r9,%rcx
    7918:	f3 41 0f 6f 04 08    	movdqu (%r8,%rcx,1),%xmm0
    791e:	66 0f d7 f0          	pmovmskb %xmm0,%esi
    7922:	4c 8d 2c 08          	lea    (%rax,%rcx,1),%r13
    7926:	49 83 c5 10          	add    $0x10,%r13
    792a:	48 83 c0 10          	add    $0x10,%rax
    792e:	66 85 f6             	test   %si,%si
    7931:	74 df                	je     7912 <_ZN3std11collections4hash3map24HashMap$LT$K$C$V$C$S$GT$6insert17h35c3a09267c5e3e2E+0x172>
    7933:	66 0f bc c6          	bsf    %si,%ax
    7937:	0f b7 c0             	movzwl %ax,%eax
    793a:	48 01 c1             	add    %rax,%rcx
    793d:	4c 21 c9             	and    %r9,%rcx
    7940:	41 80 3c 08 00       	cmpb   $0x0,(%r8,%rcx,1)
    7945:	79 2a                	jns    7971 <_ZN3std11collections4hash3map24HashMap$LT$K$C$V$C$S$GT$6insert17h35c3a09267c5e3e2E+0x1d1>
    7947:	48 89 ea             	mov    %rbp,%rdx
    794a:	e9 58 ff ff ff       	jmpq   78a7 <_ZN3std11collections4hash3map24HashMap$LT$K$C$V$C$S$GT$6insert17h35c3a09267c5e3e2E+0x107>
    794f:	66 41 0f 6f 00       	movdqa (%r8),%xmm0
    7954:	66 0f d7 c0          	pmovmskb %xmm0,%eax
    7958:	66 0f bc c0          	bsf    %ax,%ax
    795c:	0f b7 c8             	movzwl %ax,%ecx
    795f:	41 8a 1c 08          	mov    (%r8,%rcx,1),%bl
    7963:	80 e3 01             	and    $0x1,%bl
    7966:	0f 85 33 ff ff ff    	jne    789f <_ZN3std11collections4hash3map24HashMap$LT$K$C$V$C$S$GT$6insert17h35c3a09267c5e3e2E+0xff>
    796c:	e9 36 ff ff ff       	jmpq   78a7 <_ZN3std11collections4hash3map24HashMap$LT$K$C$V$C$S$GT$6insert17h35c3a09267c5e3e2E+0x107>
    7971:	66 41 0f 6f 00       	movdqa (%r8),%xmm0
    7976:	66 0f d7 c0          	pmovmskb %xmm0,%eax
    797a:	66 0f bc c0          	bsf    %ax,%ax
    797e:	0f b7 c8             	movzwl %ax,%ecx
    7981:	eb c4                	jmp    7947 <_ZN3std11collections4hash3map24HashMap$LT$K$C$V$C$S$GT$6insert17h35c3a09267c5e3e2E+0x1a7>
    7983:	66 2e 0f 1f 84 00 00 	nopw   %cs:0x0(%rax,%rax,1)
    798a:	00 00 00 
    798d:	0f 1f 00             	nopl   (%rax)

0000000000007990 <_ZN3std9panicking11begin_panic17h5313dd899ecb0c5eE>:
    7990:	48 83 ec 18          	sub    $0x18,%rsp
    7994:	48 89 7c 24 08       	mov    %rdi,0x8(%rsp)
    7999:	48 89 74 24 10       	mov    %rsi,0x10(%rsp)
    799e:	48 89 d7             	mov    %rdx,%rdi
    79a1:	ff 15 d9 1f 05 00    	callq  *0x51fd9(%rip)        # 59980 <_GLOBAL_OFFSET_TABLE_+0x200>
    79a7:	48 8d 35 8a f6 04 00 	lea    0x4f68a(%rip),%rsi        # 57038 <__do_global_dtors_aux_fini_array_entry+0xe8>
    79ae:	48 8d 7c 24 08       	lea    0x8(%rsp),%rdi
    79b3:	31 d2                	xor    %edx,%edx
    79b5:	48 89 c1             	mov    %rax,%rcx
    79b8:	ff 15 82 22 05 00    	callq  *0x52282(%rip)        # 59c40 <_GLOBAL_OFFSET_TABLE_+0x4c0>
    79be:	0f 0b                	ud2    

00000000000079c0 <_ZN44_$LT$$RF$T$u20$as$u20$core..fmt..Display$GT$3fmt17he78621c51bc92ee6E>:
    79c0:	48 8b 3f             	mov    (%rdi),%rdi
    79c3:	ff 25 2f 22 05 00    	jmpq   *0x5222f(%rip)        # 59bf8 <_GLOBAL_OFFSET_TABLE_+0x478>
    79c9:	0f 1f 80 00 00 00 00 	nopl   0x0(%rax)

00000000000079d0 <_ZN4core3ptr13drop_in_place17h0100c4f920be597aE>:
    79d0:	c3                   	retq   
    79d1:	66 2e 0f 1f 84 00 00 	nopw   %cs:0x0(%rax,%rax,1)
    79d8:	00 00 00 
    79db:	0f 1f 44 00 00       	nopl   0x0(%rax,%rax,1)

00000000000079e0 <_ZN4core3ptr13drop_in_place17h08b146a9bda878e3E>:
    79e0:	48 8b 47 08          	mov    0x8(%rdi),%rax
    79e4:	48 83 00 01          	addq   $0x1,(%rax)
    79e8:	c3                   	retq   
    79e9:	0f 1f 80 00 00 00 00 	nopl   0x0(%rax)

00000000000079f0 <_ZN4core3ptr13drop_in_place17h0f0f7deb4a240122E>:
    79f0:	41 57                	push   %r15
    79f2:	41 56                	push   %r14
    79f4:	53                   	push   %rbx
    79f5:	49 89 fe             	mov    %rdi,%r14
    79f8:	4c 8b 7f 10          	mov    0x10(%rdi),%r15
    79fc:	4d 85 ff             	test   %r15,%r15
    79ff:	74 21                	je     7a22 <_ZN4core3ptr13drop_in_place17h0f0f7deb4a240122E+0x32>
    7a01:	49 8b 1e             	mov    (%r14),%rbx
    7a04:	48 83 c3 20          	add    $0x20,%rbx
    7a08:	49 c1 e7 06          	shl    $0x6,%r15
    7a0c:	0f 1f 40 00          	nopl   0x0(%rax)
    7a10:	48 89 df             	mov    %rbx,%rdi
    7a13:	e8 a8 02 00 00       	callq  7cc0 <_ZN4core3ptr13drop_in_place17h36f96d8006312beeE>
    7a18:	48 83 c3 40          	add    $0x40,%rbx
    7a1c:	49 83 c7 c0          	add    $0xffffffffffffffc0,%r15
    7a20:	75 ee                	jne    7a10 <_ZN4core3ptr13drop_in_place17h0f0f7deb4a240122E+0x20>
    7a22:	49 8b 76 08          	mov    0x8(%r14),%rsi
    7a26:	48 85 f6             	test   %rsi,%rsi
    7a29:	74 19                	je     7a44 <_ZN4core3ptr13drop_in_place17h0f0f7deb4a240122E+0x54>
    7a2b:	48 c1 e6 06          	shl    $0x6,%rsi
    7a2f:	74 13                	je     7a44 <_ZN4core3ptr13drop_in_place17h0f0f7deb4a240122E+0x54>
    7a31:	49 8b 3e             	mov    (%r14),%rdi
    7a34:	ba 08 00 00 00       	mov    $0x8,%edx
    7a39:	5b                   	pop    %rbx
    7a3a:	41 5e                	pop    %r14
    7a3c:	41 5f                	pop    %r15
    7a3e:	ff 25 2c 20 05 00    	jmpq   *0x5202c(%rip)        # 59a70 <_GLOBAL_OFFSET_TABLE_+0x2f0>
    7a44:	5b                   	pop    %rbx
    7a45:	41 5e                	pop    %r14
    7a47:	41 5f                	pop    %r15
    7a49:	c3                   	retq   
    7a4a:	66 0f 1f 44 00 00    	nopw   0x0(%rax,%rax,1)

0000000000007a50 <_ZN4core3ptr13drop_in_place17h1848689ff7a60d78E>:
    7a50:	48 8b 0f             	mov    (%rdi),%rcx
    7a53:	48 85 c9             	test   %rcx,%rcx
    7a56:	74 40                	je     7a98 <_ZN4core3ptr13drop_in_place17h1848689ff7a60d78E+0x48>
    7a58:	48 8d 41 01          	lea    0x1(%rcx),%rax
    7a5c:	ba 10 00 00 00       	mov    $0x10,%edx
    7a61:	31 f6                	xor    %esi,%esi
    7a63:	48 f7 e2             	mul    %rdx
    7a66:	0f 91 c2             	setno  %dl
    7a69:	70 21                	jo     7a8c <_ZN4core3ptr13drop_in_place17h1848689ff7a60d78E+0x3c>
    7a6b:	40 88 d6             	mov    %dl,%sil
    7a6e:	48 c1 e6 03          	shl    $0x3,%rsi
    7a72:	48 8d 14 31          	lea    (%rcx,%rsi,1),%rdx
    7a76:	48 83 c2 10          	add    $0x10,%rdx
    7a7a:	48 83 c1 11          	add    $0x11,%rcx
    7a7e:	48 f7 de             	neg    %rsi
    7a81:	48 21 d6             	and    %rdx,%rsi
    7a84:	48 29 ce             	sub    %rcx,%rsi
    7a87:	48 01 ce             	add    %rcx,%rsi
    7a8a:	73 0d                	jae    7a99 <_ZN4core3ptr13drop_in_place17h1848689ff7a60d78E+0x49>
    7a8c:	31 d2                	xor    %edx,%edx
    7a8e:	48 8b 7f 08          	mov    0x8(%rdi),%rdi
    7a92:	ff 25 d8 1f 05 00    	jmpq   *0x51fd8(%rip)        # 59a70 <_GLOBAL_OFFSET_TABLE_+0x2f0>
    7a98:	c3                   	retq   
    7a99:	48 8d 14 06          	lea    (%rsi,%rax,1),%rdx
    7a9d:	31 c9                	xor    %ecx,%ecx
    7a9f:	48 83 fa f1          	cmp    $0xfffffffffffffff1,%rdx
    7aa3:	0f 92 c1             	setb   %cl
    7aa6:	48 c1 e1 04          	shl    $0x4,%rcx
    7aaa:	31 d2                	xor    %edx,%edx
    7aac:	48 01 c6             	add    %rax,%rsi
    7aaf:	48 0f 43 d1          	cmovae %rcx,%rdx
    7ab3:	48 8b 7f 08          	mov    0x8(%rdi),%rdi
    7ab7:	ff 25 b3 1f 05 00    	jmpq   *0x51fb3(%rip)        # 59a70 <_GLOBAL_OFFSET_TABLE_+0x2f0>
    7abd:	0f 1f 00             	nopl   (%rax)

0000000000007ac0 <_ZN4core3ptr13drop_in_place17h2922c6adddc163d1E>:
    7ac0:	55                   	push   %rbp
    7ac1:	41 57                	push   %r15
    7ac3:	41 56                	push   %r14
    7ac5:	41 55                	push   %r13
    7ac7:	41 54                	push   %r12
    7ac9:	53                   	push   %rbx
    7aca:	50                   	push   %rax
    7acb:	49 89 ff             	mov    %rdi,%r15
    7ace:	48 8b 07             	mov    (%rdi),%rax
    7ad1:	48 83 f8 02          	cmp    $0x2,%rax
    7ad5:	74 1a                	je     7af1 <_ZN4core3ptr13drop_in_place17h2922c6adddc163d1E+0x31>
    7ad7:	48 83 f8 01          	cmp    $0x1,%rax
    7adb:	74 2b                	je     7b08 <_ZN4core3ptr13drop_in_place17h2922c6adddc163d1E+0x48>
    7add:	48 85 c0             	test   %rax,%rax
    7ae0:	75 58                	jne    7b3a <_ZN4core3ptr13drop_in_place17h2922c6adddc163d1E+0x7a>
    7ae2:	48 83 c4 08          	add    $0x8,%rsp
    7ae6:	5b                   	pop    %rbx
    7ae7:	41 5c                	pop    %r12
    7ae9:	41 5d                	pop    %r13
    7aeb:	41 5e                	pop    %r14
    7aed:	41 5f                	pop    %r15
    7aef:	5d                   	pop    %rbp
    7af0:	c3                   	retq   
    7af1:	49 8b 7f 08          	mov    0x8(%r15),%rdi
    7af5:	48 8b 77 08          	mov    0x8(%rdi),%rsi
    7af9:	48 85 f6             	test   %rsi,%rsi
    7afc:	74 32                	je     7b30 <_ZN4core3ptr13drop_in_place17h2922c6adddc163d1E+0x70>
    7afe:	48 8b 3f             	mov    (%rdi),%rdi
    7b01:	ba 01 00 00 00       	mov    $0x1,%edx
    7b06:	eb 1e                	jmp    7b26 <_ZN4core3ptr13drop_in_place17h2922c6adddc163d1E+0x66>
    7b08:	49 8b 7f 08          	mov    0x8(%r15),%rdi
    7b0c:	48 8b 77 08          	mov    0x8(%rdi),%rsi
    7b10:	48 85 f6             	test   %rsi,%rsi
    7b13:	74 1b                	je     7b30 <_ZN4core3ptr13drop_in_place17h2922c6adddc163d1E+0x70>
    7b15:	48 c1 e6 03          	shl    $0x3,%rsi
    7b19:	48 85 f6             	test   %rsi,%rsi
    7b1c:	74 12                	je     7b30 <_ZN4core3ptr13drop_in_place17h2922c6adddc163d1E+0x70>
    7b1e:	48 8b 3f             	mov    (%rdi),%rdi
    7b21:	ba 08 00 00 00       	mov    $0x8,%edx
    7b26:	ff 15 44 1f 05 00    	callq  *0x51f44(%rip)        # 59a70 <_GLOBAL_OFFSET_TABLE_+0x2f0>
    7b2c:	49 8b 7f 08          	mov    0x8(%r15),%rdi
    7b30:	be 18 00 00 00       	mov    $0x18,%esi
    7b35:	e9 45 01 00 00       	jmpq   7c7f <_ZN4core3ptr13drop_in_place17h2922c6adddc163d1E+0x1bf>
    7b3a:	4d 8b 77 08          	mov    0x8(%r15),%r14
    7b3e:	49 8b 46 18          	mov    0x18(%r14),%rax
    7b42:	48 85 c0             	test   %rax,%rax
    7b45:	74 54                	je     7b9b <_ZN4core3ptr13drop_in_place17h2922c6adddc163d1E+0xdb>
    7b47:	4d 8b 6e 08          	mov    0x8(%r14),%r13
    7b4b:	48 c1 e0 03          	shl    $0x3,%rax
    7b4f:	4c 8d 24 80          	lea    (%rax,%rax,4),%r12
    7b53:	31 db                	xor    %ebx,%ebx
    7b55:	48 8d 2d b4 f9 ff ff 	lea    -0x64c(%rip),%rbp        # 7510 <__rust_dealloc>
    7b5c:	66 41 83 7c 1d 00 03 	cmpw   $0x3,0x0(%r13,%rbx,1)
    7b63:	74 1d                	je     7b82 <_ZN4core3ptr13drop_in_place17h2922c6adddc163d1E+0xc2>
    7b65:	66 2e 0f 1f 84 00 00 	nopw   %cs:0x0(%rax,%rax,1)
    7b6c:	00 00 00 
    7b6f:	90                   	nop
    7b70:	48 83 c3 28          	add    $0x28,%rbx
    7b74:	49 39 dc             	cmp    %rbx,%r12
    7b77:	74 22                	je     7b9b <_ZN4core3ptr13drop_in_place17h2922c6adddc163d1E+0xdb>
    7b79:	66 41 83 7c 1d 00 03 	cmpw   $0x3,0x0(%r13,%rbx,1)
    7b80:	75 ee                	jne    7b70 <_ZN4core3ptr13drop_in_place17h2922c6adddc163d1E+0xb0>
    7b82:	49 8b 74 1d 08       	mov    0x8(%r13,%rbx,1),%rsi
    7b87:	48 83 fe 03          	cmp    $0x3,%rsi
    7b8b:	76 e3                	jbe    7b70 <_ZN4core3ptr13drop_in_place17h2922c6adddc163d1E+0xb0>
    7b8d:	49 8b 7c 1d 18       	mov    0x18(%r13,%rbx,1),%rdi
    7b92:	ba 01 00 00 00       	mov    $0x1,%edx
    7b97:	ff d5                	callq  *%rbp
    7b99:	eb d5                	jmp    7b70 <_ZN4core3ptr13drop_in_place17h2922c6adddc163d1E+0xb0>
    7b9b:	49 8b 46 10          	mov    0x10(%r14),%rax
    7b9f:	48 85 c0             	test   %rax,%rax
    7ba2:	74 1c                	je     7bc0 <_ZN4core3ptr13drop_in_place17h2922c6adddc163d1E+0x100>
    7ba4:	48 c1 e0 03          	shl    $0x3,%rax
    7ba8:	48 8d 34 80          	lea    (%rax,%rax,4),%rsi
    7bac:	48 85 f6             	test   %rsi,%rsi
    7baf:	74 0f                	je     7bc0 <_ZN4core3ptr13drop_in_place17h2922c6adddc163d1E+0x100>
    7bb1:	49 8b 7e 08          	mov    0x8(%r14),%rdi
    7bb5:	ba 08 00 00 00       	mov    $0x8,%edx
    7bba:	ff 15 b0 1e 05 00    	callq  *0x51eb0(%rip)        # 59a70 <_GLOBAL_OFFSET_TABLE_+0x2f0>
    7bc0:	49 8b 76 30          	mov    0x30(%r14),%rsi
    7bc4:	48 85 f6             	test   %rsi,%rsi
    7bc7:	74 18                	je     7be1 <_ZN4core3ptr13drop_in_place17h2922c6adddc163d1E+0x121>
    7bc9:	48 c1 e6 03          	shl    $0x3,%rsi
    7bcd:	48 85 f6             	test   %rsi,%rsi
    7bd0:	74 0f                	je     7be1 <_ZN4core3ptr13drop_in_place17h2922c6adddc163d1E+0x121>
    7bd2:	49 8b 7e 28          	mov    0x28(%r14),%rdi
    7bd6:	ba 08 00 00 00       	mov    $0x8,%edx
    7bdb:	ff 15 8f 1e 05 00    	callq  *0x51e8f(%rip)        # 59a70 <_GLOBAL_OFFSET_TABLE_+0x2f0>
    7be1:	49 8b 76 48          	mov    0x48(%r14),%rsi
    7be5:	48 85 f6             	test   %rsi,%rsi
    7be8:	74 18                	je     7c02 <_ZN4core3ptr13drop_in_place17h2922c6adddc163d1E+0x142>
    7bea:	48 c1 e6 03          	shl    $0x3,%rsi
    7bee:	48 85 f6             	test   %rsi,%rsi
    7bf1:	74 0f                	je     7c02 <_ZN4core3ptr13drop_in_place17h2922c6adddc163d1E+0x142>
    7bf3:	49 8b 7e 40          	mov    0x40(%r14),%rdi
    7bf7:	ba 08 00 00 00       	mov    $0x8,%edx
    7bfc:	ff 15 6e 1e 05 00    	callq  *0x51e6e(%rip)        # 59a70 <_GLOBAL_OFFSET_TABLE_+0x2f0>
    7c02:	49 83 7e 58 00       	cmpq   $0x0,0x58(%r14)
    7c07:	74 6d                	je     7c76 <_ZN4core3ptr13drop_in_place17h2922c6adddc163d1E+0x1b6>
    7c09:	49 8b 46 70          	mov    0x70(%r14),%rax
    7c0d:	48 85 c0             	test   %rax,%rax
    7c10:	74 3f                	je     7c51 <_ZN4core3ptr13drop_in_place17h2922c6adddc163d1E+0x191>
    7c12:	49 8b 5e 60          	mov    0x60(%r14),%rbx
    7c16:	48 c1 e0 03          	shl    $0x3,%rax
    7c1a:	4c 8d 24 40          	lea    (%rax,%rax,2),%r12
    7c1e:	31 ed                	xor    %ebp,%ebp
    7c20:	4c 8d 2d e9 f8 ff ff 	lea    -0x717(%rip),%r13        # 7510 <__rust_dealloc>
    7c27:	eb 10                	jmp    7c39 <_ZN4core3ptr13drop_in_place17h2922c6adddc163d1E+0x179>
    7c29:	0f 1f 80 00 00 00 00 	nopl   0x0(%rax)
    7c30:	48 83 c5 18          	add    $0x18,%rbp
    7c34:	49 39 ec             	cmp    %rbp,%r12
    7c37:	74 18                	je     7c51 <_ZN4core3ptr13drop_in_place17h2922c6adddc163d1E+0x191>
    7c39:	48 8b 74 2b 08       	mov    0x8(%rbx,%rbp,1),%rsi
    7c3e:	48 85 f6             	test   %rsi,%rsi
    7c41:	74 ed                	je     7c30 <_ZN4core3ptr13drop_in_place17h2922c6adddc163d1E+0x170>
    7c43:	48 8b 3c 2b          	mov    (%rbx,%rbp,1),%rdi
    7c47:	ba 01 00 00 00       	mov    $0x1,%edx
    7c4c:	41 ff d5             	callq  *%r13
    7c4f:	eb df                	jmp    7c30 <_ZN4core3ptr13drop_in_place17h2922c6adddc163d1E+0x170>
    7c51:	49 8b 46 68          	mov    0x68(%r14),%rax
    7c55:	48 85 c0             	test   %rax,%rax
    7c58:	74 1c                	je     7c76 <_ZN4core3ptr13drop_in_place17h2922c6adddc163d1E+0x1b6>
    7c5a:	48 c1 e0 03          	shl    $0x3,%rax
    7c5e:	48 8d 34 40          	lea    (%rax,%rax,2),%rsi
    7c62:	48 85 f6             	test   %rsi,%rsi
    7c65:	74 0f                	je     7c76 <_ZN4core3ptr13drop_in_place17h2922c6adddc163d1E+0x1b6>
    7c67:	49 8b 7e 60          	mov    0x60(%r14),%rdi
    7c6b:	ba 08 00 00 00       	mov    $0x8,%edx
    7c70:	ff 15 fa 1d 05 00    	callq  *0x51dfa(%rip)        # 59a70 <_GLOBAL_OFFSET_TABLE_+0x2f0>
    7c76:	49 8b 7f 08          	mov    0x8(%r15),%rdi
    7c7a:	be a0 00 00 00       	mov    $0xa0,%esi
    7c7f:	ba 08 00 00 00       	mov    $0x8,%edx
    7c84:	48 83 c4 08          	add    $0x8,%rsp
    7c88:	5b                   	pop    %rbx
    7c89:	41 5c                	pop    %r12
    7c8b:	41 5d                	pop    %r13
    7c8d:	41 5e                	pop    %r14
    7c8f:	41 5f                	pop    %r15
    7c91:	5d                   	pop    %rbp
    7c92:	ff 25 d8 1d 05 00    	jmpq   *0x51dd8(%rip)        # 59a70 <_GLOBAL_OFFSET_TABLE_+0x2f0>
    7c98:	0f 1f 84 00 00 00 00 	nopl   0x0(%rax,%rax,1)
    7c9f:	00 

0000000000007ca0 <_ZN4core3ptr13drop_in_place17h2be7848488ea35c8E>:
    7ca0:	48 8b 77 08          	mov    0x8(%rdi),%rsi
    7ca4:	48 85 f6             	test   %rsi,%rsi
    7ca7:	74 0e                	je     7cb7 <_ZN4core3ptr13drop_in_place17h2be7848488ea35c8E+0x17>
    7ca9:	48 8b 3f             	mov    (%rdi),%rdi
    7cac:	ba 01 00 00 00       	mov    $0x1,%edx
    7cb1:	ff 25 b9 1d 05 00    	jmpq   *0x51db9(%rip)        # 59a70 <_GLOBAL_OFFSET_TABLE_+0x2f0>
    7cb7:	c3                   	retq   
    7cb8:	0f 1f 84 00 00 00 00 	nopl   0x0(%rax,%rax,1)
    7cbf:	00 

0000000000007cc0 <_ZN4core3ptr13drop_in_place17h36f96d8006312beeE>:
    7cc0:	55                   	push   %rbp
    7cc1:	41 57                	push   %r15
    7cc3:	41 56                	push   %r14
    7cc5:	41 55                	push   %r13
    7cc7:	41 54                	push   %r12
    7cc9:	53                   	push   %rbx
    7cca:	50                   	push   %rax
    7ccb:	49 89 fe             	mov    %rdi,%r14
    7cce:	48 8b 47 10          	mov    0x10(%rdi),%rax
    7cd2:	48 85 c0             	test   %rax,%rax
    7cd5:	0f 84 8a 00 00 00    	je     7d65 <_ZN4core3ptr13drop_in_place17h36f96d8006312beeE+0xa5>
    7cdb:	4d 8b 26             	mov    (%r14),%r12
    7cde:	48 c1 e0 04          	shl    $0x4,%rax
    7ce2:	4c 8d 3c 40          	lea    (%rax,%rax,2),%r15
    7ce6:	31 db                	xor    %ebx,%ebx
    7ce8:	41 bd 10 00 00 00    	mov    $0x10,%r13d
    7cee:	48 8d 2d 1b f8 ff ff 	lea    -0x7e5(%rip),%rbp        # 7510 <__rust_dealloc>
    7cf5:	eb 1b                	jmp    7d12 <_ZN4core3ptr13drop_in_place17h36f96d8006312beeE+0x52>
    7cf7:	66 0f 1f 84 00 00 00 	nopw   0x0(%rax,%rax,1)
    7cfe:	00 00 
    7d00:	31 d2                	xor    %edx,%edx
    7d02:	49 8b 7c 1c 10       	mov    0x10(%r12,%rbx,1),%rdi
    7d07:	ff d5                	callq  *%rbp
    7d09:	48 83 c3 30          	add    $0x30,%rbx
    7d0d:	49 39 df             	cmp    %rbx,%r15
    7d10:	74 53                	je     7d65 <_ZN4core3ptr13drop_in_place17h36f96d8006312beeE+0xa5>
    7d12:	49 8b 4c 1c 08       	mov    0x8(%r12,%rbx,1),%rcx
    7d17:	48 85 c9             	test   %rcx,%rcx
    7d1a:	74 ed                	je     7d09 <_ZN4core3ptr13drop_in_place17h36f96d8006312beeE+0x49>
    7d1c:	48 8d 41 01          	lea    0x1(%rcx),%rax
    7d20:	31 f6                	xor    %esi,%esi
    7d22:	49 f7 e5             	mul    %r13
    7d25:	0f 91 c2             	setno  %dl
    7d28:	70 d6                	jo     7d00 <_ZN4core3ptr13drop_in_place17h36f96d8006312beeE+0x40>
    7d2a:	40 88 d6             	mov    %dl,%sil
    7d2d:	48 c1 e6 03          	shl    $0x3,%rsi
    7d31:	48 8d 14 31          	lea    (%rcx,%rsi,1),%rdx
    7d35:	48 83 c2 10          	add    $0x10,%rdx
    7d39:	48 83 c1 11          	add    $0x11,%rcx
    7d3d:	48 f7 de             	neg    %rsi
    7d40:	48 21 d6             	and    %rdx,%rsi
    7d43:	48 29 ce             	sub    %rcx,%rsi
    7d46:	48 01 ce             	add    %rcx,%rsi
    7d49:	72 b5                	jb     7d00 <_ZN4core3ptr13drop_in_place17h36f96d8006312beeE+0x40>
    7d4b:	48 8d 0c 06          	lea    (%rsi,%rax,1),%rcx
    7d4f:	31 d2                	xor    %edx,%edx
    7d51:	48 83 f9 f1          	cmp    $0xfffffffffffffff1,%rcx
    7d55:	0f 92 c1             	setb   %cl
    7d58:	48 01 c6             	add    %rax,%rsi
    7d5b:	72 a3                	jb     7d00 <_ZN4core3ptr13drop_in_place17h36f96d8006312beeE+0x40>
    7d5d:	88 ca                	mov    %cl,%dl
    7d5f:	48 c1 e2 04          	shl    $0x4,%rdx
    7d63:	eb 9d                	jmp    7d02 <_ZN4core3ptr13drop_in_place17h36f96d8006312beeE+0x42>
    7d65:	49 8b 46 08          	mov    0x8(%r14),%rax
    7d69:	48 85 c0             	test   %rax,%rax
    7d6c:	74 29                	je     7d97 <_ZN4core3ptr13drop_in_place17h36f96d8006312beeE+0xd7>
    7d6e:	48 c1 e0 04          	shl    $0x4,%rax
    7d72:	48 8d 34 40          	lea    (%rax,%rax,2),%rsi
    7d76:	48 85 f6             	test   %rsi,%rsi
    7d79:	74 1c                	je     7d97 <_ZN4core3ptr13drop_in_place17h36f96d8006312beeE+0xd7>
    7d7b:	49 8b 3e             	mov    (%r14),%rdi
    7d7e:	ba 08 00 00 00       	mov    $0x8,%edx
    7d83:	48 83 c4 08          	add    $0x8,%rsp
    7d87:	5b                   	pop    %rbx
    7d88:	41 5c                	pop    %r12
    7d8a:	41 5d                	pop    %r13
    7d8c:	41 5e                	pop    %r14
    7d8e:	41 5f                	pop    %r15
    7d90:	5d                   	pop    %rbp
    7d91:	ff 25 d9 1c 05 00    	jmpq   *0x51cd9(%rip)        # 59a70 <_GLOBAL_OFFSET_TABLE_+0x2f0>
    7d97:	48 83 c4 08          	add    $0x8,%rsp
    7d9b:	5b                   	pop    %rbx
    7d9c:	41 5c                	pop    %r12
    7d9e:	41 5d                	pop    %r13
    7da0:	41 5e                	pop    %r14
    7da2:	41 5f                	pop    %r15
    7da4:	5d                   	pop    %rbp
    7da5:	c3                   	retq   
    7da6:	66 2e 0f 1f 84 00 00 	nopw   %cs:0x0(%rax,%rax,1)
    7dad:	00 00 00 

0000000000007db0 <_ZN4core3ptr13drop_in_place17h4350a6e561f16ebdE>:
    7db0:	53                   	push   %rbx
    7db1:	48 89 fb             	mov    %rdi,%rbx
    7db4:	48 8b 07             	mov    (%rdi),%rax
    7db7:	48 8b 38             	mov    (%rax),%rdi
    7dba:	ff 15 60 1e 05 00    	callq  *0x51e60(%rip)        # 59c20 <_GLOBAL_OFFSET_TABLE_+0x4a0>
    7dc0:	48 8b 0b             	mov    (%rbx),%rcx
    7dc3:	48 2b 41 20          	sub    0x20(%rcx),%rax
    7dc7:	48 89 41 18          	mov    %rax,0x18(%rcx)
    7dcb:	5b                   	pop    %rbx
    7dcc:	c3                   	retq   
    7dcd:	0f 1f 00             	nopl   (%rax)

0000000000007dd0 <_ZN4core3ptr13drop_in_place17h5585573cb3a15ed2E>:
    7dd0:	41 56                	push   %r14
    7dd2:	53                   	push   %rbx
    7dd3:	50                   	push   %rax
    7dd4:	48 89 fb             	mov    %rdi,%rbx
    7dd7:	80 7f 30 02          	cmpb   $0x2,0x30(%rdi)
    7ddb:	74 59                	je     7e36 <_ZN4core3ptr13drop_in_place17h5585573cb3a15ed2E+0x66>
    7ddd:	4c 8b 73 10          	mov    0x10(%rbx),%r14
    7de1:	49 83 fe 08          	cmp    $0x8,%r14
    7de5:	72 3c                	jb     7e23 <_ZN4core3ptr13drop_in_place17h5585573cb3a15ed2E+0x53>
    7de7:	49 83 e6 f8          	and    $0xfffffffffffffff8,%r14
    7deb:	49 8b 76 08          	mov    0x8(%r14),%rsi
    7def:	48 85 f6             	test   %rsi,%rsi
    7df2:	74 14                	je     7e08 <_ZN4core3ptr13drop_in_place17h5585573cb3a15ed2E+0x38>
    7df4:	48 c1 e6 04          	shl    $0x4,%rsi
    7df8:	74 0e                	je     7e08 <_ZN4core3ptr13drop_in_place17h5585573cb3a15ed2E+0x38>
    7dfa:	49 8b 3e             	mov    (%r14),%rdi
    7dfd:	ba 08 00 00 00       	mov    $0x8,%edx
    7e02:	ff 15 68 1c 05 00    	callq  *0x51c68(%rip)        # 59a70 <_GLOBAL_OFFSET_TABLE_+0x2f0>
    7e08:	be 18 00 00 00       	mov    $0x18,%esi
    7e0d:	ba 08 00 00 00       	mov    $0x8,%edx
    7e12:	4c 89 f7             	mov    %r14,%rdi
    7e15:	ff 15 55 1c 05 00    	callq  *0x51c55(%rip)        # 59a70 <_GLOBAL_OFFSET_TABLE_+0x2f0>
    7e1b:	48 c7 43 10 00 00 00 	movq   $0x0,0x10(%rbx)
    7e22:	00 
    7e23:	48 89 df             	mov    %rbx,%rdi
    7e26:	e8 95 fc ff ff       	callq  7ac0 <_ZN4core3ptr13drop_in_place17h2922c6adddc163d1E>
    7e2b:	48 c7 03 00 00 00 00 	movq   $0x0,(%rbx)
    7e32:	c6 43 30 02          	movb   $0x2,0x30(%rbx)
    7e36:	48 89 df             	mov    %rbx,%rdi
    7e39:	48 83 c4 08          	add    $0x8,%rsp
    7e3d:	5b                   	pop    %rbx
    7e3e:	41 5e                	pop    %r14
    7e40:	e9 7b fc ff ff       	jmpq   7ac0 <_ZN4core3ptr13drop_in_place17h2922c6adddc163d1E>
    7e45:	66 2e 0f 1f 84 00 00 	nopw   %cs:0x0(%rax,%rax,1)
    7e4c:	00 00 00 
    7e4f:	90                   	nop

0000000000007e50 <_ZN4core3ptr13drop_in_place17h6dbaa61b3cf7866bE>:
    7e50:	41 56                	push   %r14
    7e52:	53                   	push   %rbx
    7e53:	50                   	push   %rax
    7e54:	48 89 fb             	mov    %rdi,%rbx
    7e57:	48 c7 47 38 00 00 00 	movq   $0x0,0x38(%rdi)
    7e5e:	00 
    7e5f:	48 c7 47 08 00 00 00 	movq   $0x0,0x8(%rdi)
    7e66:	00 
    7e67:	4c 8b 77 48          	mov    0x48(%rdi),%r14
    7e6b:	48 8b 0d e6 21 05 00 	mov    0x521e6(%rip),%rcx        # 5a058 <_ZN6jlight6common3mem14PAGE_SIZE_BITS17h17252e31c8460036E>
    7e72:	48 85 c9             	test   %rcx,%rcx
    7e75:	75 0c                	jne    7e83 <_ZN4core3ptr13drop_in_place17h6dbaa61b3cf7866bE+0x33>
    7e77:	e8 e4 2d 00 00       	callq  ac60 <_ZN6jlight6common3mem14init_page_size17h80ed9e88c8e8ba88E>
    7e7c:	48 8b 0d d5 21 05 00 	mov    0x521d5(%rip),%rcx        # 5a058 <_ZN6jlight6common3mem14PAGE_SIZE_BITS17h17252e31c8460036E>
    7e83:	be 01 00 00 00       	mov    $0x1,%esi
    7e88:	48 d3 e6             	shl    %cl,%rsi
    7e8b:	48 81 c6 ff 07 00 00 	add    $0x7ff,%rsi
    7e92:	48 d3 ee             	shr    %cl,%rsi
    7e95:	48 d3 e6             	shl    %cl,%rsi
    7e98:	4c 89 f7             	mov    %r14,%rdi
    7e9b:	31 d2                	xor    %edx,%edx
    7e9d:	b9 22 40 00 00       	mov    $0x4022,%ecx
    7ea2:	41 b8 ff ff ff ff    	mov    $0xffffffff,%r8d
    7ea8:	45 31 c9             	xor    %r9d,%r9d
    7eab:	ff 15 ef 20 05 00    	callq  *0x520ef(%rip)        # 59fa0 <mmap@GLIBC_2.2.5>
    7eb1:	48 83 f8 ff          	cmp    $0xffffffffffffffff,%rax
    7eb5:	74 72                	je     7f29 <_ZN4core3ptr13drop_in_place17h6dbaa61b3cf7866bE+0xd9>
    7eb7:	48 8b 73 18          	mov    0x18(%rbx),%rsi
    7ebb:	48 85 f6             	test   %rsi,%rsi
    7ebe:	74 18                	je     7ed8 <_ZN4core3ptr13drop_in_place17h6dbaa61b3cf7866bE+0x88>
    7ec0:	48 c1 e6 03          	shl    $0x3,%rsi
    7ec4:	48 85 f6             	test   %rsi,%rsi
    7ec7:	74 0f                	je     7ed8 <_ZN4core3ptr13drop_in_place17h6dbaa61b3cf7866bE+0x88>
    7ec9:	48 8b 7b 10          	mov    0x10(%rbx),%rdi
    7ecd:	ba 08 00 00 00       	mov    $0x8,%edx
    7ed2:	ff 15 98 1b 05 00    	callq  *0x51b98(%rip)        # 59a70 <_GLOBAL_OFFSET_TABLE_+0x2f0>
    7ed8:	48 8b 73 30          	mov    0x30(%rbx),%rsi
    7edc:	48 85 f6             	test   %rsi,%rsi
    7edf:	74 18                	je     7ef9 <_ZN4core3ptr13drop_in_place17h6dbaa61b3cf7866bE+0xa9>
    7ee1:	48 c1 e6 03          	shl    $0x3,%rsi
    7ee5:	48 85 f6             	test   %rsi,%rsi
    7ee8:	74 0f                	je     7ef9 <_ZN4core3ptr13drop_in_place17h6dbaa61b3cf7866bE+0xa9>
    7eea:	48 8b 7b 28          	mov    0x28(%rbx),%rdi
    7eee:	ba 08 00 00 00       	mov    $0x8,%edx
    7ef3:	ff 15 77 1b 05 00    	callq  *0x51b77(%rip)        # 59a70 <_GLOBAL_OFFSET_TABLE_+0x2f0>
    7ef9:	48 8b 73 70          	mov    0x70(%rbx),%rsi
    7efd:	48 85 f6             	test   %rsi,%rsi
    7f00:	74 1f                	je     7f21 <_ZN4core3ptr13drop_in_place17h6dbaa61b3cf7866bE+0xd1>
    7f02:	48 c1 e6 02          	shl    $0x2,%rsi
    7f06:	48 85 f6             	test   %rsi,%rsi
    7f09:	74 16                	je     7f21 <_ZN4core3ptr13drop_in_place17h6dbaa61b3cf7866bE+0xd1>
    7f0b:	48 8b 7b 68          	mov    0x68(%rbx),%rdi
    7f0f:	ba 04 00 00 00       	mov    $0x4,%edx
    7f14:	48 83 c4 08          	add    $0x8,%rsp
    7f18:	5b                   	pop    %rbx
    7f19:	41 5e                	pop    %r14
    7f1b:	ff 25 4f 1b 05 00    	jmpq   *0x51b4f(%rip)        # 59a70 <_GLOBAL_OFFSET_TABLE_+0x2f0>
    7f21:	48 83 c4 08          	add    $0x8,%rsp
    7f25:	5b                   	pop    %rbx
    7f26:	41 5e                	pop    %r14
    7f28:	c3                   	retq   
    7f29:	48 8d 3d 93 c6 03 00 	lea    0x3c693(%rip),%rdi        # 445c3 <str.1+0x43>
    7f30:	48 8d 15 99 f3 04 00 	lea    0x4f399(%rip),%rdx        # 572d0 <__do_global_dtors_aux_fini_array_entry+0x380>
    7f37:	be 26 00 00 00       	mov    $0x26,%esi
    7f3c:	e8 4f fa ff ff       	callq  7990 <_ZN3std9panicking11begin_panic17h5313dd899ecb0c5eE>
    7f41:	0f 0b                	ud2    
    7f43:	49 89 c6             	mov    %rax,%r14
    7f46:	48 8d 7b 10          	lea    0x10(%rbx),%rdi
    7f4a:	e8 81 04 00 00       	callq  83d0 <_ZN4core3ptr13drop_in_place17he5b730949a676cceE>
    7f4f:	48 8d 7b 28          	lea    0x28(%rbx),%rdi
    7f53:	e8 78 04 00 00       	callq  83d0 <_ZN4core3ptr13drop_in_place17he5b730949a676cceE>
    7f58:	48 83 c3 68          	add    $0x68,%rbx
    7f5c:	48 89 df             	mov    %rbx,%rdi
    7f5f:	e8 0c 00 00 00       	callq  7f70 <_ZN4core3ptr13drop_in_place17h7b6f3f0522ef030dE>
    7f64:	4c 89 f7             	mov    %r14,%rdi
    7f67:	e8 54 f1 ff ff       	callq  70c0 <_Unwind_Resume@plt>
    7f6c:	0f 0b                	ud2    
    7f6e:	66 90                	xchg   %ax,%ax

0000000000007f70 <_ZN4core3ptr13drop_in_place17h7b6f3f0522ef030dE>:
    7f70:	48 8b 77 08          	mov    0x8(%rdi),%rsi
    7f74:	48 85 f6             	test   %rsi,%rsi
    7f77:	74 17                	je     7f90 <_ZN4core3ptr13drop_in_place17h7b6f3f0522ef030dE+0x20>
    7f79:	48 c1 e6 02          	shl    $0x2,%rsi
    7f7d:	48 85 f6             	test   %rsi,%rsi
    7f80:	74 0e                	je     7f90 <_ZN4core3ptr13drop_in_place17h7b6f3f0522ef030dE+0x20>
    7f82:	48 8b 3f             	mov    (%rdi),%rdi
    7f85:	ba 04 00 00 00       	mov    $0x4,%edx
    7f8a:	ff 25 e0 1a 05 00    	jmpq   *0x51ae0(%rip)        # 59a70 <_GLOBAL_OFFSET_TABLE_+0x2f0>
    7f90:	c3                   	retq   
    7f91:	66 2e 0f 1f 84 00 00 	nopw   %cs:0x0(%rax,%rax,1)
    7f98:	00 00 00 
    7f9b:	0f 1f 44 00 00       	nopl   0x0(%rax,%rax,1)

0000000000007fa0 <_ZN4core3ptr13drop_in_place17h983b62444ab05265E>:
    7fa0:	48 83 c7 20          	add    $0x20,%rdi
    7fa4:	e9 17 fd ff ff       	jmpq   7cc0 <_ZN4core3ptr13drop_in_place17h36f96d8006312beeE>
    7fa9:	0f 1f 80 00 00 00 00 	nopl   0x0(%rax)

0000000000007fb0 <_ZN4core3ptr13drop_in_place17ha34b9beaa9fa0e34E>:
    7fb0:	55                   	push   %rbp
    7fb1:	41 57                	push   %r15
    7fb3:	41 56                	push   %r14
    7fb5:	41 55                	push   %r13
    7fb7:	41 54                	push   %r12
    7fb9:	53                   	push   %rbx
    7fba:	50                   	push   %rax
    7fbb:	49 89 ff             	mov    %rdi,%r15
    7fbe:	48 8b 07             	mov    (%rdi),%rax
    7fc1:	4c 8b 30             	mov    (%rax),%r14
    7fc4:	4c 89 f1             	mov    %r14,%rcx
    7fc7:	48 c7 c7 ff ff ff ff 	mov    $0xffffffffffffffff,%rdi
    7fce:	48 ff c1             	inc    %rcx
    7fd1:	0f 84 86 00 00 00    	je     805d <_ZN4core3ptr13drop_in_place17ha34b9beaa9fa0e34E+0xad>
    7fd7:	49 f7 de             	neg    %r14
    7fda:	41 bc 10 00 00 00    	mov    $0x10,%r12d
    7fe0:	48 c7 c3 f0 ff ff ff 	mov    $0xfffffffffffffff0,%rbx
    7fe7:	4c 8d 2d 22 f5 ff ff 	lea    -0xade(%rip),%r13        # 7510 <__rust_dealloc>
    7fee:	66 90                	xchg   %ax,%ax
    7ff0:	48 8b 48 08          	mov    0x8(%rax),%rcx
    7ff4:	80 7c 19 10 80       	cmpb   $0x80,0x10(%rcx,%rbx,1)
    7ff9:	75 45                	jne    8040 <_ZN4core3ptr13drop_in_place17ha34b9beaa9fa0e34E+0x90>
    7ffb:	48 8b 00             	mov    (%rax),%rax
    7ffe:	48 21 d8             	and    %rbx,%rax
    8001:	c6 44 19 10 ff       	movb   $0xff,0x10(%rcx,%rbx,1)
    8006:	c6 44 08 10 ff       	movb   $0xff,0x10(%rax,%rcx,1)
    800b:	49 8b 07             	mov    (%r15),%rax
    800e:	48 8b 68 10          	mov    0x10(%rax),%rbp
    8012:	4a 8b 7c 25 f8       	mov    -0x8(%rbp,%r12,1),%rdi
    8017:	4a 8b 44 25 00       	mov    0x0(%rbp,%r12,1),%rax
    801c:	ff 10                	callq  *(%rax)
    801e:	4a 8b 44 25 00       	mov    0x0(%rbp,%r12,1),%rax
    8023:	48 8b 70 08          	mov    0x8(%rax),%rsi
    8027:	48 85 f6             	test   %rsi,%rsi
    802a:	74 0c                	je     8038 <_ZN4core3ptr13drop_in_place17ha34b9beaa9fa0e34E+0x88>
    802c:	4a 8b 7c 25 f8       	mov    -0x8(%rbp,%r12,1),%rdi
    8031:	48 8b 50 10          	mov    0x10(%rax),%rdx
    8035:	41 ff d5             	callq  *%r13
    8038:	49 8b 07             	mov    (%r15),%rax
    803b:	48 83 40 20 ff       	addq   $0xffffffffffffffff,0x20(%rax)
    8040:	49 8d 04 1e          	lea    (%r14,%rbx,1),%rax
    8044:	48 83 f8 f0          	cmp    $0xfffffffffffffff0,%rax
    8048:	74 0d                	je     8057 <_ZN4core3ptr13drop_in_place17ha34b9beaa9fa0e34E+0xa7>
    804a:	49 8b 07             	mov    (%r15),%rax
    804d:	49 83 c4 18          	add    $0x18,%r12
    8051:	48 83 c3 01          	add    $0x1,%rbx
    8055:	eb 99                	jmp    7ff0 <_ZN4core3ptr13drop_in_place17ha34b9beaa9fa0e34E+0x40>
    8057:	49 8b 07             	mov    (%r15),%rax
    805a:	48 8b 38             	mov    (%rax),%rdi
    805d:	ff 15 bd 1b 05 00    	callq  *0x51bbd(%rip)        # 59c20 <_GLOBAL_OFFSET_TABLE_+0x4a0>
    8063:	49 8b 0f             	mov    (%r15),%rcx
    8066:	48 2b 41 20          	sub    0x20(%rcx),%rax
    806a:	48 89 41 18          	mov    %rax,0x18(%rcx)
    806e:	48 83 c4 08          	add    $0x8,%rsp
    8072:	5b                   	pop    %rbx
    8073:	41 5c                	pop    %r12
    8075:	41 5d                	pop    %r13
    8077:	41 5e                	pop    %r14
    8079:	41 5f                	pop    %r15
    807b:	5d                   	pop    %rbp
    807c:	c3                   	retq   
    807d:	49 89 c6             	mov    %rax,%r14
    8080:	4a 8b 7c 25 f8       	mov    -0x8(%rbp,%r12,1),%rdi
    8085:	4a 8b 74 25 00       	mov    0x0(%rbp,%r12,1),%rsi
    808a:	e8 01 0b 00 00       	callq  8b90 <_ZN5alloc5alloc8box_free17h7f556128946ce4d5E>
    808f:	4c 89 f7             	mov    %r14,%rdi
    8092:	e8 29 f0 ff ff       	callq  70c0 <_Unwind_Resume@plt>
    8097:	0f 0b                	ud2    
    8099:	0f 1f 80 00 00 00 00 	nopl   0x0(%rax)

00000000000080a0 <_ZN4core3ptr13drop_in_place17hac00db0e2895f197E>:
    80a0:	48 8b 4f 08          	mov    0x8(%rdi),%rcx
    80a4:	48 85 c9             	test   %rcx,%rcx
    80a7:	74 40                	je     80e9 <_ZN4core3ptr13drop_in_place17hac00db0e2895f197E+0x49>
    80a9:	48 8d 41 01          	lea    0x1(%rcx),%rax
    80ad:	ba 10 00 00 00       	mov    $0x10,%edx
    80b2:	31 f6                	xor    %esi,%esi
    80b4:	48 f7 e2             	mul    %rdx
    80b7:	0f 91 c2             	setno  %dl
    80ba:	70 21                	jo     80dd <_ZN4core3ptr13drop_in_place17hac00db0e2895f197E+0x3d>
    80bc:	40 88 d6             	mov    %dl,%sil
    80bf:	48 c1 e6 03          	shl    $0x3,%rsi
    80c3:	48 8d 14 31          	lea    (%rcx,%rsi,1),%rdx
    80c7:	48 83 c2 10          	add    $0x10,%rdx
    80cb:	48 83 c1 11          	add    $0x11,%rcx
    80cf:	48 f7 de             	neg    %rsi
    80d2:	48 21 d6             	and    %rdx,%rsi
    80d5:	48 29 ce             	sub    %rcx,%rsi
    80d8:	48 01 ce             	add    %rcx,%rsi
    80db:	73 0d                	jae    80ea <_ZN4core3ptr13drop_in_place17hac00db0e2895f197E+0x4a>
    80dd:	31 d2                	xor    %edx,%edx
    80df:	48 8b 7f 10          	mov    0x10(%rdi),%rdi
    80e3:	ff 25 87 19 05 00    	jmpq   *0x51987(%rip)        # 59a70 <_GLOBAL_OFFSET_TABLE_+0x2f0>
    80e9:	c3                   	retq   
    80ea:	48 8d 14 06          	lea    (%rsi,%rax,1),%rdx
    80ee:	31 c9                	xor    %ecx,%ecx
    80f0:	48 83 fa f1          	cmp    $0xfffffffffffffff1,%rdx
    80f4:	0f 92 c1             	setb   %cl
    80f7:	48 c1 e1 04          	shl    $0x4,%rcx
    80fb:	31 d2                	xor    %edx,%edx
    80fd:	48 01 c6             	add    %rax,%rsi
    8100:	48 0f 43 d1          	cmovae %rcx,%rdx
    8104:	48 8b 7f 10          	mov    0x10(%rdi),%rdi
    8108:	ff 25 62 19 05 00    	jmpq   *0x51962(%rip)        # 59a70 <_GLOBAL_OFFSET_TABLE_+0x2f0>
    810e:	66 90                	xchg   %ax,%ax

0000000000008110 <_ZN4core3ptr13drop_in_place17hb0614a61d5de5856E>:
    8110:	41 56                	push   %r14
    8112:	53                   	push   %rbx
    8113:	50                   	push   %rax
    8114:	48 89 fb             	mov    %rdi,%rbx
    8117:	48 8b 07             	mov    (%rdi),%rax
    811a:	48 8b 7f 08          	mov    0x8(%rdi),%rdi
    811e:	48 8b 73 18          	mov    0x18(%rbx),%rsi
    8122:	48 39 c7             	cmp    %rax,%rdi
    8125:	73 20                	jae    8147 <_ZN4core3ptr13drop_in_place17hb0614a61d5de5856E+0x37>
    8127:	48 39 c6             	cmp    %rax,%rsi
    812a:	73 20                	jae    814c <_ZN4core3ptr13drop_in_place17hb0614a61d5de5856E+0x3c>
    812c:	48 8d 3d ea c1 03 00 	lea    0x3c1ea(%rip),%rdi        # 4431d <_fini+0xb05>
    8133:	48 8d 15 7e ef 04 00 	lea    0x4ef7e(%rip),%rdx        # 570b8 <__do_global_dtors_aux_fini_array_entry+0x168>
    813a:	be 1c 00 00 00       	mov    $0x1c,%esi
    813f:	ff 15 a3 1b 05 00    	callq  *0x51ba3(%rip)        # 59ce8 <_GLOBAL_OFFSET_TABLE_+0x568>
    8145:	eb 3e                	jmp    8185 <_ZN4core3ptr13drop_in_place17hb0614a61d5de5856E+0x75>
    8147:	48 39 fe             	cmp    %rdi,%rsi
    814a:	72 2c                	jb     8178 <_ZN4core3ptr13drop_in_place17hb0614a61d5de5856E+0x68>
    814c:	48 85 f6             	test   %rsi,%rsi
    814f:	74 1f                	je     8170 <_ZN4core3ptr13drop_in_place17hb0614a61d5de5856E+0x60>
    8151:	48 c1 e6 03          	shl    $0x3,%rsi
    8155:	48 85 f6             	test   %rsi,%rsi
    8158:	74 16                	je     8170 <_ZN4core3ptr13drop_in_place17hb0614a61d5de5856E+0x60>
    815a:	48 8b 7b 10          	mov    0x10(%rbx),%rdi
    815e:	ba 08 00 00 00       	mov    $0x8,%edx
    8163:	48 83 c4 08          	add    $0x8,%rsp
    8167:	5b                   	pop    %rbx
    8168:	41 5e                	pop    %r14
    816a:	ff 25 00 19 05 00    	jmpq   *0x51900(%rip)        # 59a70 <_GLOBAL_OFFSET_TABLE_+0x2f0>
    8170:	48 83 c4 08          	add    $0x8,%rsp
    8174:	5b                   	pop    %rbx
    8175:	41 5e                	pop    %r14
    8177:	c3                   	retq   
    8178:	48 8d 15 c9 ef 04 00 	lea    0x4efc9(%rip),%rdx        # 57148 <__do_global_dtors_aux_fini_array_entry+0x1f8>
    817f:	ff 15 bb 19 05 00    	callq  *0x519bb(%rip)        # 59b40 <_GLOBAL_OFFSET_TABLE_+0x3c0>
    8185:	0f 0b                	ud2    
    8187:	49 89 c6             	mov    %rax,%r14
    818a:	48 83 c3 10          	add    $0x10,%rbx
    818e:	48 89 df             	mov    %rbx,%rdi
    8191:	e8 3a 02 00 00       	callq  83d0 <_ZN4core3ptr13drop_in_place17he5b730949a676cceE>
    8196:	4c 89 f7             	mov    %r14,%rdi
    8199:	e8 22 ef ff ff       	callq  70c0 <_Unwind_Resume@plt>
    819e:	0f 0b                	ud2    

00000000000081a0 <_ZN4core3ptr13drop_in_place17hce281944f711c243E>:
    81a0:	41 57                	push   %r15
    81a2:	41 56                	push   %r14
    81a4:	41 54                	push   %r12
    81a6:	53                   	push   %rbx
    81a7:	50                   	push   %rax
    81a8:	49 89 fe             	mov    %rdi,%r14
    81ab:	48 8b 1f             	mov    (%rdi),%rbx
    81ae:	48 8b 47 10          	mov    0x10(%rdi),%rax
    81b2:	48 89 c1             	mov    %rax,%rcx
    81b5:	48 c1 e1 07          	shl    $0x7,%rcx
    81b9:	4c 8d 24 c1          	lea    (%rcx,%rax,8),%r12
    81bd:	0f 1f 00             	nopl   (%rax)
    81c0:	4d 85 e4             	test   %r12,%r12
    81c3:	74 18                	je     81dd <_ZN4core3ptr13drop_in_place17hce281944f711c243E+0x3d>
    81c5:	49 81 c4 78 ff ff ff 	add    $0xffffffffffffff78,%r12
    81cc:	48 89 df             	mov    %rbx,%rdi
    81cf:	48 81 c3 88 00 00 00 	add    $0x88,%rbx
    81d6:	e8 75 fc ff ff       	callq  7e50 <_ZN4core3ptr13drop_in_place17h6dbaa61b3cf7866bE>
    81db:	eb e3                	jmp    81c0 <_ZN4core3ptr13drop_in_place17hce281944f711c243E+0x20>
    81dd:	49 8b 76 08          	mov    0x8(%r14),%rsi
    81e1:	48 85 f6             	test   %rsi,%rsi
    81e4:	74 2a                	je     8210 <_ZN4core3ptr13drop_in_place17hce281944f711c243E+0x70>
    81e6:	48 8d 04 f5 00 00 00 	lea    0x0(,%rsi,8),%rax
    81ed:	00 
    81ee:	48 c1 e6 07          	shl    $0x7,%rsi
    81f2:	48 01 c6             	add    %rax,%rsi
    81f5:	74 19                	je     8210 <_ZN4core3ptr13drop_in_place17hce281944f711c243E+0x70>
    81f7:	49 8b 3e             	mov    (%r14),%rdi
    81fa:	ba 08 00 00 00       	mov    $0x8,%edx
    81ff:	48 83 c4 08          	add    $0x8,%rsp
    8203:	5b                   	pop    %rbx
    8204:	41 5c                	pop    %r12
    8206:	41 5e                	pop    %r14
    8208:	41 5f                	pop    %r15
    820a:	ff 25 60 18 05 00    	jmpq   *0x51860(%rip)        # 59a70 <_GLOBAL_OFFSET_TABLE_+0x2f0>
    8210:	48 83 c4 08          	add    $0x8,%rsp
    8214:	5b                   	pop    %rbx
    8215:	41 5c                	pop    %r12
    8217:	41 5e                	pop    %r14
    8219:	41 5f                	pop    %r15
    821b:	c3                   	retq   
    821c:	49 89 c7             	mov    %rax,%r15
    821f:	4d 85 e4             	test   %r12,%r12
    8222:	74 29                	je     824d <_ZN4core3ptr13drop_in_place17hce281944f711c243E+0xad>
    8224:	66 2e 0f 1f 84 00 00 	nopw   %cs:0x0(%rax,%rax,1)
    822b:	00 00 00 
    822e:	66 90                	xchg   %ax,%ax
    8230:	48 89 df             	mov    %rbx,%rdi
    8233:	e8 18 fc ff ff       	callq  7e50 <_ZN4core3ptr13drop_in_place17h6dbaa61b3cf7866bE>
    8238:	48 81 c3 88 00 00 00 	add    $0x88,%rbx
    823f:	49 81 c4 78 ff ff ff 	add    $0xffffffffffffff78,%r12
    8246:	75 e8                	jne    8230 <_ZN4core3ptr13drop_in_place17hce281944f711c243E+0x90>
    8248:	eb 03                	jmp    824d <_ZN4core3ptr13drop_in_place17hce281944f711c243E+0xad>
    824a:	49 89 c7             	mov    %rax,%r15
    824d:	4c 89 f7             	mov    %r14,%rdi
    8250:	e8 db 00 00 00       	callq  8330 <_ZN4core3ptr13drop_in_place17hdfec7d9976316008E>
    8255:	4c 89 ff             	mov    %r15,%rdi
    8258:	e8 63 ee ff ff       	callq  70c0 <_Unwind_Resume@plt>
    825d:	0f 0b                	ud2    
    825f:	90                   	nop

0000000000008260 <_ZN4core3ptr13drop_in_place17hd21e5a07c6f79fbdE>:
    8260:	48 8b 0f             	mov    (%rdi),%rcx
    8263:	48 85 c9             	test   %rcx,%rcx
    8266:	74 40                	je     82a8 <_ZN4core3ptr13drop_in_place17hd21e5a07c6f79fbdE+0x48>
    8268:	48 8d 41 01          	lea    0x1(%rcx),%rax
    826c:	ba 18 00 00 00       	mov    $0x18,%edx
    8271:	31 f6                	xor    %esi,%esi
    8273:	48 f7 e2             	mul    %rdx
    8276:	0f 91 c2             	setno  %dl
    8279:	70 21                	jo     829c <_ZN4core3ptr13drop_in_place17hd21e5a07c6f79fbdE+0x3c>
    827b:	40 88 d6             	mov    %dl,%sil
    827e:	48 c1 e6 03          	shl    $0x3,%rsi
    8282:	48 8d 14 31          	lea    (%rcx,%rsi,1),%rdx
    8286:	48 83 c2 10          	add    $0x10,%rdx
    828a:	48 83 c1 11          	add    $0x11,%rcx
    828e:	48 f7 de             	neg    %rsi
    8291:	48 21 d6             	and    %rdx,%rsi
    8294:	48 29 ce             	sub    %rcx,%rsi
    8297:	48 01 ce             	add    %rcx,%rsi
    829a:	73 0d                	jae    82a9 <_ZN4core3ptr13drop_in_place17hd21e5a07c6f79fbdE+0x49>
    829c:	31 d2                	xor    %edx,%edx
    829e:	48 8b 7f 08          	mov    0x8(%rdi),%rdi
    82a2:	ff 25 c8 17 05 00    	jmpq   *0x517c8(%rip)        # 59a70 <_GLOBAL_OFFSET_TABLE_+0x2f0>
    82a8:	c3                   	retq   
    82a9:	48 8d 14 06          	lea    (%rsi,%rax,1),%rdx
    82ad:	31 c9                	xor    %ecx,%ecx
    82af:	48 83 fa f1          	cmp    $0xfffffffffffffff1,%rdx
    82b3:	0f 92 c1             	setb   %cl
    82b6:	48 c1 e1 04          	shl    $0x4,%rcx
    82ba:	31 d2                	xor    %edx,%edx
    82bc:	48 01 c6             	add    %rax,%rsi
    82bf:	48 0f 43 d1          	cmovae %rcx,%rdx
    82c3:	48 8b 7f 08          	mov    0x8(%rdi),%rdi
    82c7:	ff 25 a3 17 05 00    	jmpq   *0x517a3(%rip)        # 59a70 <_GLOBAL_OFFSET_TABLE_+0x2f0>
    82cd:	0f 1f 00             	nopl   (%rax)

00000000000082d0 <_ZN4core3ptr13drop_in_place17hd80b65fcb834fcadE>:
    82d0:	41 57                	push   %r15
    82d2:	41 56                	push   %r14
    82d4:	53                   	push   %rbx
    82d5:	49 89 fe             	mov    %rdi,%r14
    82d8:	4c 8b 7f 20          	mov    0x20(%rdi),%r15
    82dc:	4d 85 ff             	test   %r15,%r15
    82df:	74 21                	je     8302 <_ZN4core3ptr13drop_in_place17hd80b65fcb834fcadE+0x32>
    82e1:	49 8b 5e 10          	mov    0x10(%r14),%rbx
    82e5:	48 83 c3 20          	add    $0x20,%rbx
    82e9:	49 c1 e7 06          	shl    $0x6,%r15
    82ed:	0f 1f 00             	nopl   (%rax)
    82f0:	48 89 df             	mov    %rbx,%rdi
    82f3:	e8 c8 f9 ff ff       	callq  7cc0 <_ZN4core3ptr13drop_in_place17h36f96d8006312beeE>
    82f8:	48 83 c3 40          	add    $0x40,%rbx
    82fc:	49 83 c7 c0          	add    $0xffffffffffffffc0,%r15
    8300:	75 ee                	jne    82f0 <_ZN4core3ptr13drop_in_place17hd80b65fcb834fcadE+0x20>
    8302:	49 8b 76 18          	mov    0x18(%r14),%rsi
    8306:	48 85 f6             	test   %rsi,%rsi
    8309:	74 1a                	je     8325 <_ZN4core3ptr13drop_in_place17hd80b65fcb834fcadE+0x55>
    830b:	48 c1 e6 06          	shl    $0x6,%rsi
    830f:	74 14                	je     8325 <_ZN4core3ptr13drop_in_place17hd80b65fcb834fcadE+0x55>
    8311:	49 8b 7e 10          	mov    0x10(%r14),%rdi
    8315:	ba 08 00 00 00       	mov    $0x8,%edx
    831a:	5b                   	pop    %rbx
    831b:	41 5e                	pop    %r14
    831d:	41 5f                	pop    %r15
    831f:	ff 25 4b 17 05 00    	jmpq   *0x5174b(%rip)        # 59a70 <_GLOBAL_OFFSET_TABLE_+0x2f0>
    8325:	5b                   	pop    %rbx
    8326:	41 5e                	pop    %r14
    8328:	41 5f                	pop    %r15
    832a:	c3                   	retq   
    832b:	0f 1f 44 00 00       	nopl   0x0(%rax,%rax,1)

0000000000008330 <_ZN4core3ptr13drop_in_place17hdfec7d9976316008E>:
    8330:	48 8b 77 08          	mov    0x8(%rdi),%rsi
    8334:	48 85 f6             	test   %rsi,%rsi
    8337:	74 1f                	je     8358 <_ZN4core3ptr13drop_in_place17hdfec7d9976316008E+0x28>
    8339:	48 8d 04 f5 00 00 00 	lea    0x0(,%rsi,8),%rax
    8340:	00 
    8341:	48 c1 e6 07          	shl    $0x7,%rsi
    8345:	48 01 c6             	add    %rax,%rsi
    8348:	74 0e                	je     8358 <_ZN4core3ptr13drop_in_place17hdfec7d9976316008E+0x28>
    834a:	48 8b 3f             	mov    (%rdi),%rdi
    834d:	ba 08 00 00 00       	mov    $0x8,%edx
    8352:	ff 25 18 17 05 00    	jmpq   *0x51718(%rip)        # 59a70 <_GLOBAL_OFFSET_TABLE_+0x2f0>
    8358:	c3                   	retq   
    8359:	0f 1f 80 00 00 00 00 	nopl   0x0(%rax)

0000000000008360 <_ZN4core3ptr13drop_in_place17he3905c3e565d03e1E>:
    8360:	48 8b 4f 10          	mov    0x10(%rdi),%rcx
    8364:	48 85 c9             	test   %rcx,%rcx
    8367:	74 40                	je     83a9 <_ZN4core3ptr13drop_in_place17he3905c3e565d03e1E+0x49>
    8369:	48 8d 41 01          	lea    0x1(%rcx),%rax
    836d:	ba 10 00 00 00       	mov    $0x10,%edx
    8372:	31 f6                	xor    %esi,%esi
    8374:	48 f7 e2             	mul    %rdx
    8377:	0f 91 c2             	setno  %dl
    837a:	70 21                	jo     839d <_ZN4core3ptr13drop_in_place17he3905c3e565d03e1E+0x3d>
    837c:	40 88 d6             	mov    %dl,%sil
    837f:	48 c1 e6 03          	shl    $0x3,%rsi
    8383:	48 8d 14 31          	lea    (%rcx,%rsi,1),%rdx
    8387:	48 83 c2 10          	add    $0x10,%rdx
    838b:	48 83 c1 11          	add    $0x11,%rcx
    838f:	48 f7 de             	neg    %rsi
    8392:	48 21 d6             	and    %rdx,%rsi
    8395:	48 29 ce             	sub    %rcx,%rsi
    8398:	48 01 ce             	add    %rcx,%rsi
    839b:	73 0d                	jae    83aa <_ZN4core3ptr13drop_in_place17he3905c3e565d03e1E+0x4a>
    839d:	31 d2                	xor    %edx,%edx
    839f:	48 8b 7f 18          	mov    0x18(%rdi),%rdi
    83a3:	ff 25 c7 16 05 00    	jmpq   *0x516c7(%rip)        # 59a70 <_GLOBAL_OFFSET_TABLE_+0x2f0>
    83a9:	c3                   	retq   
    83aa:	48 8d 14 06          	lea    (%rsi,%rax,1),%rdx
    83ae:	31 c9                	xor    %ecx,%ecx
    83b0:	48 83 fa f1          	cmp    $0xfffffffffffffff1,%rdx
    83b4:	0f 92 c1             	setb   %cl
    83b7:	48 c1 e1 04          	shl    $0x4,%rcx
    83bb:	31 d2                	xor    %edx,%edx
    83bd:	48 01 c6             	add    %rax,%rsi
    83c0:	48 0f 43 d1          	cmovae %rcx,%rdx
    83c4:	48 8b 7f 18          	mov    0x18(%rdi),%rdi
    83c8:	ff 25 a2 16 05 00    	jmpq   *0x516a2(%rip)        # 59a70 <_GLOBAL_OFFSET_TABLE_+0x2f0>
    83ce:	66 90                	xchg   %ax,%ax

00000000000083d0 <_ZN4core3ptr13drop_in_place17he5b730949a676cceE>:
    83d0:	48 8b 77 08          	mov    0x8(%rdi),%rsi
    83d4:	48 85 f6             	test   %rsi,%rsi
    83d7:	74 17                	je     83f0 <_ZN4core3ptr13drop_in_place17he5b730949a676cceE+0x20>
    83d9:	48 c1 e6 03          	shl    $0x3,%rsi
    83dd:	48 85 f6             	test   %rsi,%rsi
    83e0:	74 0e                	je     83f0 <_ZN4core3ptr13drop_in_place17he5b730949a676cceE+0x20>
    83e2:	48 8b 3f             	mov    (%rdi),%rdi
    83e5:	ba 08 00 00 00       	mov    $0x8,%edx
    83ea:	ff 25 80 16 05 00    	jmpq   *0x51680(%rip)        # 59a70 <_GLOBAL_OFFSET_TABLE_+0x2f0>
    83f0:	c3                   	retq   
    83f1:	66 2e 0f 1f 84 00 00 	nopw   %cs:0x0(%rax,%rax,1)
    83f8:	00 00 00 
    83fb:	0f 1f 44 00 00       	nopl   0x0(%rax,%rax,1)

0000000000008400 <_ZN4core3ptr13drop_in_place17hfee288f8cca693aeE>:
    8400:	41 57                	push   %r15
    8402:	41 56                	push   %r14
    8404:	41 54                	push   %r12
    8406:	53                   	push   %rbx
    8407:	50                   	push   %rax
    8408:	49 89 fe             	mov    %rdi,%r14
    840b:	48 8b 1f             	mov    (%rdi),%rbx
    840e:	48 8b 47 10          	mov    0x10(%rdi),%rax
    8412:	48 89 c1             	mov    %rax,%rcx
    8415:	48 c1 e1 07          	shl    $0x7,%rcx
    8419:	4c 8d 24 c1          	lea    (%rcx,%rax,8),%r12
    841d:	0f 1f 00             	nopl   (%rax)
    8420:	4d 85 e4             	test   %r12,%r12
    8423:	74 18                	je     843d <_ZN4core3ptr13drop_in_place17hfee288f8cca693aeE+0x3d>
    8425:	49 81 c4 78 ff ff ff 	add    $0xffffffffffffff78,%r12
    842c:	48 89 df             	mov    %rbx,%rdi
    842f:	48 81 c3 88 00 00 00 	add    $0x88,%rbx
    8436:	e8 15 fa ff ff       	callq  7e50 <_ZN4core3ptr13drop_in_place17h6dbaa61b3cf7866bE>
    843b:	eb e3                	jmp    8420 <_ZN4core3ptr13drop_in_place17hfee288f8cca693aeE+0x20>
    843d:	49 8b 76 08          	mov    0x8(%r14),%rsi
    8441:	48 85 f6             	test   %rsi,%rsi
    8444:	74 1f                	je     8465 <_ZN4core3ptr13drop_in_place17hfee288f8cca693aeE+0x65>
    8446:	48 8d 04 f5 00 00 00 	lea    0x0(,%rsi,8),%rax
    844d:	00 
    844e:	48 c1 e6 07          	shl    $0x7,%rsi
    8452:	48 01 c6             	add    %rax,%rsi
    8455:	74 0e                	je     8465 <_ZN4core3ptr13drop_in_place17hfee288f8cca693aeE+0x65>
    8457:	49 8b 3e             	mov    (%r14),%rdi
    845a:	ba 08 00 00 00       	mov    $0x8,%edx
    845f:	ff 15 0b 16 05 00    	callq  *0x5160b(%rip)        # 59a70 <_GLOBAL_OFFSET_TABLE_+0x2f0>
    8465:	4d 8b 7e 40          	mov    0x40(%r14),%r15
    8469:	4d 85 ff             	test   %r15,%r15
    846c:	74 24                	je     8492 <_ZN4core3ptr13drop_in_place17hfee288f8cca693aeE+0x92>
    846e:	49 8b 5e 30          	mov    0x30(%r14),%rbx
    8472:	48 83 c3 20          	add    $0x20,%rbx
    8476:	49 c1 e7 06          	shl    $0x6,%r15
    847a:	66 0f 1f 44 00 00    	nopw   0x0(%rax,%rax,1)
    8480:	48 89 df             	mov    %rbx,%rdi
    8483:	e8 38 f8 ff ff       	callq  7cc0 <_ZN4core3ptr13drop_in_place17h36f96d8006312beeE>
    8488:	48 83 c3 40          	add    $0x40,%rbx
    848c:	49 83 c7 c0          	add    $0xffffffffffffffc0,%r15
    8490:	75 ee                	jne    8480 <_ZN4core3ptr13drop_in_place17hfee288f8cca693aeE+0x80>
    8492:	49 8b 76 38          	mov    0x38(%r14),%rsi
    8496:	48 85 f6             	test   %rsi,%rsi
    8499:	74 15                	je     84b0 <_ZN4core3ptr13drop_in_place17hfee288f8cca693aeE+0xb0>
    849b:	48 c1 e6 06          	shl    $0x6,%rsi
    849f:	74 0f                	je     84b0 <_ZN4core3ptr13drop_in_place17hfee288f8cca693aeE+0xb0>
    84a1:	49 8b 7e 30          	mov    0x30(%r14),%rdi
    84a5:	ba 08 00 00 00       	mov    $0x8,%edx
    84aa:	ff 15 c0 15 05 00    	callq  *0x515c0(%rip)        # 59a70 <_GLOBAL_OFFSET_TABLE_+0x2f0>
    84b0:	49 8b 8e a0 00 00 00 	mov    0xa0(%r14),%rcx
    84b7:	48 85 c9             	test   %rcx,%rcx
    84ba:	74 38                	je     84f4 <_ZN4core3ptr13drop_in_place17hfee288f8cca693aeE+0xf4>
    84bc:	48 8d 41 01          	lea    0x1(%rcx),%rax
    84c0:	ba 10 00 00 00       	mov    $0x10,%edx
    84c5:	31 f6                	xor    %esi,%esi
    84c7:	48 f7 e2             	mul    %rdx
    84ca:	0f 91 c2             	setno  %dl
    84cd:	70 21                	jo     84f0 <_ZN4core3ptr13drop_in_place17hfee288f8cca693aeE+0xf0>
    84cf:	40 88 d6             	mov    %dl,%sil
    84d2:	48 c1 e6 03          	shl    $0x3,%rsi
    84d6:	48 8d 14 31          	lea    (%rcx,%rsi,1),%rdx
    84da:	48 83 c2 10          	add    $0x10,%rdx
    84de:	48 83 c1 11          	add    $0x11,%rcx
    84e2:	48 f7 de             	neg    %rsi
    84e5:	48 21 d6             	and    %rdx,%rsi
    84e8:	48 29 ce             	sub    %rcx,%rsi
    84eb:	48 01 ce             	add    %rcx,%rsi
    84ee:	73 10                	jae    8500 <_ZN4core3ptr13drop_in_place17hfee288f8cca693aeE+0x100>
    84f0:	31 d2                	xor    %edx,%edx
    84f2:	eb 27                	jmp    851b <_ZN4core3ptr13drop_in_place17hfee288f8cca693aeE+0x11b>
    84f4:	48 83 c4 08          	add    $0x8,%rsp
    84f8:	5b                   	pop    %rbx
    84f9:	41 5c                	pop    %r12
    84fb:	41 5e                	pop    %r14
    84fd:	41 5f                	pop    %r15
    84ff:	c3                   	retq   
    8500:	48 8d 0c 06          	lea    (%rsi,%rax,1),%rcx
    8504:	31 ff                	xor    %edi,%edi
    8506:	48 83 f9 f1          	cmp    $0xfffffffffffffff1,%rcx
    850a:	40 0f 92 c7          	setb   %dil
    850e:	48 c1 e7 04          	shl    $0x4,%rdi
    8512:	31 d2                	xor    %edx,%edx
    8514:	48 01 c6             	add    %rax,%rsi
    8517:	48 0f 43 d7          	cmovae %rdi,%rdx
    851b:	49 8b be a8 00 00 00 	mov    0xa8(%r14),%rdi
    8522:	48 83 c4 08          	add    $0x8,%rsp
    8526:	5b                   	pop    %rbx
    8527:	41 5c                	pop    %r12
    8529:	41 5e                	pop    %r14
    852b:	41 5f                	pop    %r15
    852d:	ff 25 3d 15 05 00    	jmpq   *0x5153d(%rip)        # 59a70 <_GLOBAL_OFFSET_TABLE_+0x2f0>
    8533:	49 89 c7             	mov    %rax,%r15
    8536:	4d 85 e4             	test   %r12,%r12
    8539:	74 22                	je     855d <_ZN4core3ptr13drop_in_place17hfee288f8cca693aeE+0x15d>
    853b:	0f 1f 44 00 00       	nopl   0x0(%rax,%rax,1)
    8540:	48 89 df             	mov    %rbx,%rdi
    8543:	e8 08 f9 ff ff       	callq  7e50 <_ZN4core3ptr13drop_in_place17h6dbaa61b3cf7866bE>
    8548:	48 81 c3 88 00 00 00 	add    $0x88,%rbx
    854f:	49 81 c4 78 ff ff ff 	add    $0xffffffffffffff78,%r12
    8556:	75 e8                	jne    8540 <_ZN4core3ptr13drop_in_place17hfee288f8cca693aeE+0x140>
    8558:	eb 03                	jmp    855d <_ZN4core3ptr13drop_in_place17hfee288f8cca693aeE+0x15d>
    855a:	49 89 c7             	mov    %rax,%r15
    855d:	4c 89 f7             	mov    %r14,%rdi
    8560:	e8 cb fd ff ff       	callq  8330 <_ZN4core3ptr13drop_in_place17hdfec7d9976316008E>
    8565:	49 8d 7e 20          	lea    0x20(%r14),%rdi
    8569:	e8 62 fd ff ff       	callq  82d0 <_ZN4core3ptr13drop_in_place17hd80b65fcb834fcadE>
    856e:	49 81 c6 90 00 00 00 	add    $0x90,%r14
    8575:	4c 89 f7             	mov    %r14,%rdi
    8578:	e8 e3 fd ff ff       	callq  8360 <_ZN4core3ptr13drop_in_place17he3905c3e565d03e1E>
    857d:	4c 89 ff             	mov    %r15,%rdi
    8580:	e8 3b eb ff ff       	callq  70c0 <_Unwind_Resume@plt>
    8585:	0f 0b                	ud2    
    8587:	66 0f 1f 84 00 00 00 	nopw   0x0(%rax,%rax,1)
    858e:	00 00 

0000000000008590 <_ZN50_$LT$$RF$mut$u20$W$u20$as$u20$core..fmt..Write$GT$10write_char17hd45ae14b20c1e6eaE>:
    8590:	55                   	push   %rbp
    8591:	41 57                	push   %r15
    8593:	41 56                	push   %r14
    8595:	53                   	push   %rbx
    8596:	50                   	push   %rax
    8597:	89 f5                	mov    %esi,%ebp
    8599:	4c 8b 3f             	mov    (%rdi),%r15
    859c:	81 fe 80 00 00 00    	cmp    $0x80,%esi
    85a2:	73 2c                	jae    85d0 <_ZN50_$LT$$RF$mut$u20$W$u20$as$u20$core..fmt..Write$GT$10write_char17hd45ae14b20c1e6eaE+0x40>
    85a4:	49 8b 47 10          	mov    0x10(%r15),%rax
    85a8:	49 3b 47 08          	cmp    0x8(%r15),%rax
    85ac:	75 11                	jne    85bf <_ZN50_$LT$$RF$mut$u20$W$u20$as$u20$core..fmt..Write$GT$10write_char17hd45ae14b20c1e6eaE+0x2f>
    85ae:	be 01 00 00 00       	mov    $0x1,%esi
    85b3:	4c 89 ff             	mov    %r15,%rdi
    85b6:	e8 75 04 00 00       	callq  8a30 <_ZN5alloc3vec12Vec$LT$T$GT$7reserve17h586feee7908d59ecE>
    85bb:	49 8b 47 10          	mov    0x10(%r15),%rax
    85bf:	49 8b 0f             	mov    (%r15),%rcx
    85c2:	40 88 2c 01          	mov    %bpl,(%rcx,%rax,1)
    85c6:	49 83 47 10 01       	addq   $0x1,0x10(%r15)
    85cb:	e9 c7 00 00 00       	jmpq   8697 <_ZN50_$LT$$RF$mut$u20$W$u20$as$u20$core..fmt..Write$GT$10write_char17hd45ae14b20c1e6eaE+0x107>
    85d0:	c7 44 24 04 00 00 00 	movl   $0x0,0x4(%rsp)
    85d7:	00 
    85d8:	4c 8d 74 24 04       	lea    0x4(%rsp),%r14
    85dd:	89 e8                	mov    %ebp,%eax
    85df:	81 fd 00 08 00 00    	cmp    $0x800,%ebp
    85e5:	73 1f                	jae    8606 <_ZN50_$LT$$RF$mut$u20$W$u20$as$u20$core..fmt..Write$GT$10write_char17hd45ae14b20c1e6eaE+0x76>
    85e7:	c1 e8 06             	shr    $0x6,%eax
    85ea:	24 1f                	and    $0x1f,%al
    85ec:	0c c0                	or     $0xc0,%al
    85ee:	88 44 24 04          	mov    %al,0x4(%rsp)
    85f2:	40 80 e5 3f          	and    $0x3f,%bpl
    85f6:	40 80 cd 80          	or     $0x80,%bpl
    85fa:	40 88 6c 24 05       	mov    %bpl,0x5(%rsp)
    85ff:	bd 02 00 00 00       	mov    $0x2,%ebp
    8604:	eb 69                	jmp    866f <_ZN50_$LT$$RF$mut$u20$W$u20$as$u20$core..fmt..Write$GT$10write_char17hd45ae14b20c1e6eaE+0xdf>
    8606:	81 fd 00 00 01 00    	cmp    $0x10000,%ebp
    860c:	73 2c                	jae    863a <_ZN50_$LT$$RF$mut$u20$W$u20$as$u20$core..fmt..Write$GT$10write_char17hd45ae14b20c1e6eaE+0xaa>
    860e:	c1 e8 0c             	shr    $0xc,%eax
    8611:	24 0f                	and    $0xf,%al
    8613:	0c e0                	or     $0xe0,%al
    8615:	88 44 24 04          	mov    %al,0x4(%rsp)
    8619:	89 e8                	mov    %ebp,%eax
    861b:	c1 e8 06             	shr    $0x6,%eax
    861e:	24 3f                	and    $0x3f,%al
    8620:	0c 80                	or     $0x80,%al
    8622:	88 44 24 05          	mov    %al,0x5(%rsp)
    8626:	40 80 e5 3f          	and    $0x3f,%bpl
    862a:	40 80 cd 80          	or     $0x80,%bpl
    862e:	40 88 6c 24 06       	mov    %bpl,0x6(%rsp)
    8633:	bd 03 00 00 00       	mov    $0x3,%ebp
    8638:	eb 35                	jmp    866f <_ZN50_$LT$$RF$mut$u20$W$u20$as$u20$core..fmt..Write$GT$10write_char17hd45ae14b20c1e6eaE+0xdf>
    863a:	c1 e8 12             	shr    $0x12,%eax
    863d:	0c f0                	or     $0xf0,%al
    863f:	88 44 24 04          	mov    %al,0x4(%rsp)
    8643:	89 e8                	mov    %ebp,%eax
    8645:	c1 e8 0c             	shr    $0xc,%eax
    8648:	24 3f                	and    $0x3f,%al
    864a:	0c 80                	or     $0x80,%al
    864c:	88 44 24 05          	mov    %al,0x5(%rsp)
    8650:	89 e8                	mov    %ebp,%eax
    8652:	c1 e8 06             	shr    $0x6,%eax
    8655:	24 3f                	and    $0x3f,%al
    8657:	0c 80                	or     $0x80,%al
    8659:	88 44 24 06          	mov    %al,0x6(%rsp)
    865d:	40 80 e5 3f          	and    $0x3f,%bpl
    8661:	40 80 cd 80          	or     $0x80,%bpl
    8665:	40 88 6c 24 07       	mov    %bpl,0x7(%rsp)
    866a:	bd 04 00 00 00       	mov    $0x4,%ebp
    866f:	4c 89 ff             	mov    %r15,%rdi
    8672:	48 89 ee             	mov    %rbp,%rsi
    8675:	e8 b6 03 00 00       	callq  8a30 <_ZN5alloc3vec12Vec$LT$T$GT$7reserve17h586feee7908d59ecE>
    867a:	49 8b 5f 10          	mov    0x10(%r15),%rbx
    867e:	49 8b 3f             	mov    (%r15),%rdi
    8681:	48 01 df             	add    %rbx,%rdi
    8684:	4c 89 f6             	mov    %r14,%rsi
    8687:	48 89 ea             	mov    %rbp,%rdx
    868a:	ff 15 f8 18 05 00    	callq  *0x518f8(%rip)        # 59f88 <memcpy@GLIBC_2.14>
    8690:	48 01 eb             	add    %rbp,%rbx
    8693:	49 89 5f 10          	mov    %rbx,0x10(%r15)
    8697:	31 c0                	xor    %eax,%eax
    8699:	48 83 c4 08          	add    $0x8,%rsp
    869d:	5b                   	pop    %rbx
    869e:	41 5e                	pop    %r14
    86a0:	41 5f                	pop    %r15
    86a2:	5d                   	pop    %rbp
    86a3:	c3                   	retq   
    86a4:	66 2e 0f 1f 84 00 00 	nopw   %cs:0x0(%rax,%rax,1)
    86ab:	00 00 00 
    86ae:	66 90                	xchg   %ax,%ax

00000000000086b0 <_ZN50_$LT$$RF$mut$u20$W$u20$as$u20$core..fmt..Write$GT$9write_fmt17hcd9043437a8a3696E>:
    86b0:	48 83 ec 48          	sub    $0x48,%rsp
    86b4:	48 8b 07             	mov    (%rdi),%rax
    86b7:	48 89 44 24 08       	mov    %rax,0x8(%rsp)
    86bc:	0f 10 06             	movups (%rsi),%xmm0
    86bf:	0f 10 4e 10          	movups 0x10(%rsi),%xmm1
    86c3:	0f 10 56 20          	movups 0x20(%rsi),%xmm2
    86c7:	0f 29 54 24 30       	movaps %xmm2,0x30(%rsp)
    86cc:	0f 29 4c 24 20       	movaps %xmm1,0x20(%rsp)
    86d1:	0f 29 44 24 10       	movaps %xmm0,0x10(%rsp)
    86d6:	48 8d 35 ab e9 04 00 	lea    0x4e9ab(%rip),%rsi        # 57088 <__do_global_dtors_aux_fini_array_entry+0x138>
    86dd:	48 8d 7c 24 08       	lea    0x8(%rsp),%rdi
    86e2:	48 8d 54 24 10       	lea    0x10(%rsp),%rdx
    86e7:	ff 15 1b 13 05 00    	callq  *0x5131b(%rip)        # 59a08 <_GLOBAL_OFFSET_TABLE_+0x288>
    86ed:	48 83 c4 48          	add    $0x48,%rsp
    86f1:	c3                   	retq   
    86f2:	66 2e 0f 1f 84 00 00 	nopw   %cs:0x0(%rax,%rax,1)
    86f9:	00 00 00 
    86fc:	0f 1f 40 00          	nopl   0x0(%rax)

0000000000008700 <_ZN50_$LT$$RF$mut$u20$W$u20$as$u20$core..fmt..Write$GT$9write_str17hb45d1b5433a40925E>:
    8700:	41 57                	push   %r15
    8702:	41 56                	push   %r14
    8704:	41 54                	push   %r12
    8706:	53                   	push   %rbx
    8707:	50                   	push   %rax
    8708:	49 89 d7             	mov    %rdx,%r15
    870b:	49 89 f6             	mov    %rsi,%r14
    870e:	4c 8b 27             	mov    (%rdi),%r12
    8711:	4c 89 e7             	mov    %r12,%rdi
    8714:	48 89 d6             	mov    %rdx,%rsi
    8717:	e8 14 03 00 00       	callq  8a30 <_ZN5alloc3vec12Vec$LT$T$GT$7reserve17h586feee7908d59ecE>
    871c:	49 8b 5c 24 10       	mov    0x10(%r12),%rbx
    8721:	49 8b 3c 24          	mov    (%r12),%rdi
    8725:	48 01 df             	add    %rbx,%rdi
    8728:	4c 89 f6             	mov    %r14,%rsi
    872b:	4c 89 fa             	mov    %r15,%rdx
    872e:	ff 15 54 18 05 00    	callq  *0x51854(%rip)        # 59f88 <memcpy@GLIBC_2.14>
    8734:	4c 01 fb             	add    %r15,%rbx
    8737:	49 89 5c 24 10       	mov    %rbx,0x10(%r12)
    873c:	31 c0                	xor    %eax,%eax
    873e:	48 83 c4 08          	add    $0x8,%rsp
    8742:	5b                   	pop    %rbx
    8743:	41 5c                	pop    %r12
    8745:	41 5e                	pop    %r14
    8747:	41 5f                	pop    %r15
    8749:	c3                   	retq   
    874a:	66 0f 1f 44 00 00    	nopw   0x0(%rax,%rax,1)

0000000000008750 <_ZN52_$LT$$BP$mut$u20$T$u20$as$u20$core..fmt..Pointer$GT$3fmt17h6c57c6770cb6d7a0E>:
    8750:	55                   	push   %rbp
    8751:	41 57                	push   %r15
    8753:	41 56                	push   %r14
    8755:	41 54                	push   %r12
    8757:	53                   	push   %rbx
    8758:	48 83 ec 10          	sub    $0x10,%rsp
    875c:	48 89 f3             	mov    %rsi,%rbx
    875f:	48 8b 2f             	mov    (%rdi),%rbp
    8762:	4c 8b 36             	mov    (%rsi),%r14
    8765:	4c 8b 7e 08          	mov    0x8(%rsi),%r15
    8769:	44 8b 66 30          	mov    0x30(%rsi),%r12d
    876d:	48 89 f7             	mov    %rsi,%rdi
    8770:	ff 15 1a 12 05 00    	callq  *0x5121a(%rip)        # 59990 <_GLOBAL_OFFSET_TABLE_+0x210>
    8776:	8b 4b 30             	mov    0x30(%rbx),%ecx
    8779:	84 c0                	test   %al,%al
    877b:	74 1b                	je     8798 <_ZN52_$LT$$BP$mut$u20$T$u20$as$u20$core..fmt..Pointer$GT$3fmt17h6c57c6770cb6d7a0E+0x48>
    877d:	83 c9 08             	or     $0x8,%ecx
    8780:	89 4b 30             	mov    %ecx,0x30(%rbx)
    8783:	48 83 3b 01          	cmpq   $0x1,(%rbx)
    8787:	74 0f                	je     8798 <_ZN52_$LT$$BP$mut$u20$T$u20$as$u20$core..fmt..Pointer$GT$3fmt17h6c57c6770cb6d7a0E+0x48>
    8789:	48 c7 03 01 00 00 00 	movq   $0x1,(%rbx)
    8790:	48 c7 43 08 12 00 00 	movq   $0x12,0x8(%rbx)
    8797:	00 
    8798:	83 c9 04             	or     $0x4,%ecx
    879b:	89 4b 30             	mov    %ecx,0x30(%rbx)
    879e:	48 89 6c 24 08       	mov    %rbp,0x8(%rsp)
    87a3:	48 8d 7c 24 08       	lea    0x8(%rsp),%rdi
    87a8:	48 89 de             	mov    %rbx,%rsi
    87ab:	ff 15 0f 12 05 00    	callq  *0x5120f(%rip)        # 599c0 <_GLOBAL_OFFSET_TABLE_+0x240>
    87b1:	4c 89 33             	mov    %r14,(%rbx)
    87b4:	4c 89 7b 08          	mov    %r15,0x8(%rbx)
    87b8:	44 89 63 30          	mov    %r12d,0x30(%rbx)
    87bc:	48 83 c4 10          	add    $0x10,%rsp
    87c0:	5b                   	pop    %rbx
    87c1:	41 5c                	pop    %r12
    87c3:	41 5e                	pop    %r14
    87c5:	41 5f                	pop    %r15
    87c7:	5d                   	pop    %rbp
    87c8:	c3                   	retq   
    87c9:	0f 1f 80 00 00 00 00 	nopl   0x0(%rax)

00000000000087d0 <_ZN5alloc3vec12Vec$LT$T$GT$4push17h86b4ef3228c63cd8E>:
    87d0:	41 57                	push   %r15
    87d2:	41 56                	push   %r14
    87d4:	53                   	push   %rbx
    87d5:	49 89 f6             	mov    %rsi,%r14
    87d8:	48 89 fb             	mov    %rdi,%rbx
    87db:	48 8b 4f 10          	mov    0x10(%rdi),%rcx
    87df:	48 3b 4f 08          	cmp    0x8(%rdi),%rcx
    87e3:	0f 85 a8 00 00 00    	jne    8891 <_ZN5alloc3vec12Vec$LT$T$GT$4push17h86b4ef3228c63cd8E+0xc1>
    87e9:	48 89 c8             	mov    %rcx,%rax
    87ec:	48 ff c0             	inc    %rax
    87ef:	0f 84 db 00 00 00    	je     88d0 <_ZN5alloc3vec12Vec$LT$T$GT$4push17h86b4ef3228c63cd8E+0x100>
    87f5:	48 8d 14 09          	lea    (%rcx,%rcx,1),%rdx
    87f9:	48 39 c2             	cmp    %rax,%rdx
    87fc:	48 0f 47 c2          	cmova  %rdx,%rax
    8800:	ba 40 00 00 00       	mov    $0x40,%edx
    8805:	48 f7 e2             	mul    %rdx
    8808:	0f 80 c2 00 00 00    	jo     88d0 <_ZN5alloc3vec12Vec$LT$T$GT$4push17h86b4ef3228c63cd8E+0x100>
    880e:	49 89 c7             	mov    %rax,%r15
    8811:	48 85 c9             	test   %rcx,%rcx
    8814:	74 2f                	je     8845 <_ZN5alloc3vec12Vec$LT$T$GT$4push17h86b4ef3228c63cd8E+0x75>
    8816:	48 89 ce             	mov    %rcx,%rsi
    8819:	48 c1 e6 06          	shl    $0x6,%rsi
    881d:	48 8b 03             	mov    (%rbx),%rax
    8820:	4c 39 fe             	cmp    %r15,%rsi
    8823:	74 61                	je     8886 <_ZN5alloc3vec12Vec$LT$T$GT$4push17h86b4ef3228c63cd8E+0xb6>
    8825:	48 85 f6             	test   %rsi,%rsi
    8828:	74 40                	je     886a <_ZN5alloc3vec12Vec$LT$T$GT$4push17h86b4ef3228c63cd8E+0x9a>
    882a:	ba 08 00 00 00       	mov    $0x8,%edx
    882f:	48 89 c7             	mov    %rax,%rdi
    8832:	4c 89 f9             	mov    %r15,%rcx
    8835:	ff 15 fd 0f 05 00    	callq  *0x50ffd(%rip)        # 59838 <_GLOBAL_OFFSET_TABLE_+0xb8>
    883b:	48 85 c0             	test   %rax,%rax
    883e:	75 42                	jne    8882 <_ZN5alloc3vec12Vec$LT$T$GT$4push17h86b4ef3228c63cd8E+0xb2>
    8840:	e9 93 00 00 00       	jmpq   88d8 <_ZN5alloc3vec12Vec$LT$T$GT$4push17h86b4ef3228c63cd8E+0x108>
    8845:	4d 85 ff             	test   %r15,%r15
    8848:	74 17                	je     8861 <_ZN5alloc3vec12Vec$LT$T$GT$4push17h86b4ef3228c63cd8E+0x91>
    884a:	be 08 00 00 00       	mov    $0x8,%esi
    884f:	4c 89 ff             	mov    %r15,%rdi
    8852:	ff 15 50 14 05 00    	callq  *0x51450(%rip)        # 59ca8 <_GLOBAL_OFFSET_TABLE_+0x528>
    8858:	48 85 c0             	test   %rax,%rax
    885b:	74 7b                	je     88d8 <_ZN5alloc3vec12Vec$LT$T$GT$4push17h86b4ef3228c63cd8E+0x108>
    885d:	31 c9                	xor    %ecx,%ecx
    885f:	eb 25                	jmp    8886 <_ZN5alloc3vec12Vec$LT$T$GT$4push17h86b4ef3228c63cd8E+0xb6>
    8861:	b8 08 00 00 00       	mov    $0x8,%eax
    8866:	31 c9                	xor    %ecx,%ecx
    8868:	eb 1c                	jmp    8886 <_ZN5alloc3vec12Vec$LT$T$GT$4push17h86b4ef3228c63cd8E+0xb6>
    886a:	4d 85 ff             	test   %r15,%r15
    886d:	74 5a                	je     88c9 <_ZN5alloc3vec12Vec$LT$T$GT$4push17h86b4ef3228c63cd8E+0xf9>
    886f:	be 08 00 00 00       	mov    $0x8,%esi
    8874:	4c 89 ff             	mov    %r15,%rdi
    8877:	ff 15 2b 14 05 00    	callq  *0x5142b(%rip)        # 59ca8 <_GLOBAL_OFFSET_TABLE_+0x528>
    887d:	48 85 c0             	test   %rax,%rax
    8880:	74 56                	je     88d8 <_ZN5alloc3vec12Vec$LT$T$GT$4push17h86b4ef3228c63cd8E+0x108>
    8882:	48 8b 4b 10          	mov    0x10(%rbx),%rcx
    8886:	48 89 03             	mov    %rax,(%rbx)
    8889:	49 c1 ef 06          	shr    $0x6,%r15
    888d:	4c 89 7b 08          	mov    %r15,0x8(%rbx)
    8891:	48 8b 03             	mov    (%rbx),%rax
    8894:	48 c1 e1 06          	shl    $0x6,%rcx
    8898:	41 0f 10 06          	movups (%r14),%xmm0
    889c:	41 0f 10 4e 10       	movups 0x10(%r14),%xmm1
    88a1:	41 0f 10 56 20       	movups 0x20(%r14),%xmm2
    88a6:	41 0f 10 5e 30       	movups 0x30(%r14),%xmm3
    88ab:	0f 11 5c 08 30       	movups %xmm3,0x30(%rax,%rcx,1)
    88b0:	0f 11 54 08 20       	movups %xmm2,0x20(%rax,%rcx,1)
    88b5:	0f 11 4c 08 10       	movups %xmm1,0x10(%rax,%rcx,1)
    88ba:	0f 11 04 08          	movups %xmm0,(%rax,%rcx,1)
    88be:	48 83 43 10 01       	addq   $0x1,0x10(%rbx)
    88c3:	5b                   	pop    %rbx
    88c4:	41 5e                	pop    %r14
    88c6:	41 5f                	pop    %r15
    88c8:	c3                   	retq   
    88c9:	b8 08 00 00 00       	mov    $0x8,%eax
    88ce:	eb b6                	jmp    8886 <_ZN5alloc3vec12Vec$LT$T$GT$4push17h86b4ef3228c63cd8E+0xb6>
    88d0:	ff 15 5a 12 05 00    	callq  *0x5125a(%rip)        # 59b30 <_GLOBAL_OFFSET_TABLE_+0x3b0>
    88d6:	0f 0b                	ud2    
    88d8:	be 08 00 00 00       	mov    $0x8,%esi
    88dd:	4c 89 ff             	mov    %r15,%rdi
    88e0:	ff 15 4a 10 05 00    	callq  *0x5104a(%rip)        # 59930 <_GLOBAL_OFFSET_TABLE_+0x1b0>
    88e6:	0f 0b                	ud2    
    88e8:	48 89 c3             	mov    %rax,%rbx
    88eb:	4c 89 f7             	mov    %r14,%rdi
    88ee:	e8 ad f6 ff ff       	callq  7fa0 <_ZN4core3ptr13drop_in_place17h983b62444ab05265E>
    88f3:	48 89 df             	mov    %rbx,%rdi
    88f6:	e8 c5 e7 ff ff       	callq  70c0 <_Unwind_Resume@plt>
    88fb:	0f 0b                	ud2    
    88fd:	0f 1f 00             	nopl   (%rax)

0000000000008900 <_ZN5alloc3vec12Vec$LT$T$GT$4push17hafa81de91dcd6feaE>:
    8900:	41 57                	push   %r15
    8902:	41 56                	push   %r14
    8904:	53                   	push   %rbx
    8905:	49 89 f6             	mov    %rsi,%r14
    8908:	48 89 fb             	mov    %rdi,%rbx
    890b:	48 8b 4f 10          	mov    0x10(%rdi),%rcx
    890f:	48 3b 4f 08          	cmp    0x8(%rdi),%rcx
    8913:	0f 85 bc 00 00 00    	jne    89d5 <_ZN5alloc3vec12Vec$LT$T$GT$4push17hafa81de91dcd6feaE+0xd5>
    8919:	48 89 c8             	mov    %rcx,%rax
    891c:	48 ff c0             	inc    %rax
    891f:	0f 84 de 00 00 00    	je     8a03 <_ZN5alloc3vec12Vec$LT$T$GT$4push17hafa81de91dcd6feaE+0x103>
    8925:	48 8d 14 09          	lea    (%rcx,%rcx,1),%rdx
    8929:	48 39 c2             	cmp    %rax,%rdx
    892c:	48 0f 47 c2          	cmova  %rdx,%rax
    8930:	ba 88 00 00 00       	mov    $0x88,%edx
    8935:	48 f7 e2             	mul    %rdx
    8938:	0f 80 c5 00 00 00    	jo     8a03 <_ZN5alloc3vec12Vec$LT$T$GT$4push17hafa81de91dcd6feaE+0x103>
    893e:	49 89 c7             	mov    %rax,%r15
    8941:	48 85 c9             	test   %rcx,%rcx
    8944:	74 33                	je     8979 <_ZN5alloc3vec12Vec$LT$T$GT$4push17hafa81de91dcd6feaE+0x79>
    8946:	48 89 c8             	mov    %rcx,%rax
    8949:	48 c1 e0 07          	shl    $0x7,%rax
    894d:	48 8d 34 c8          	lea    (%rax,%rcx,8),%rsi
    8951:	48 8b 03             	mov    (%rbx),%rax
    8954:	4c 39 fe             	cmp    %r15,%rsi
    8957:	74 61                	je     89ba <_ZN5alloc3vec12Vec$LT$T$GT$4push17hafa81de91dcd6feaE+0xba>
    8959:	48 85 f6             	test   %rsi,%rsi
    895c:	74 40                	je     899e <_ZN5alloc3vec12Vec$LT$T$GT$4push17hafa81de91dcd6feaE+0x9e>
    895e:	ba 08 00 00 00       	mov    $0x8,%edx
    8963:	48 89 c7             	mov    %rax,%rdi
    8966:	4c 89 f9             	mov    %r15,%rcx
    8969:	ff 15 c9 0e 05 00    	callq  *0x50ec9(%rip)        # 59838 <_GLOBAL_OFFSET_TABLE_+0xb8>
    896f:	48 85 c0             	test   %rax,%rax
    8972:	75 42                	jne    89b6 <_ZN5alloc3vec12Vec$LT$T$GT$4push17hafa81de91dcd6feaE+0xb6>
    8974:	e9 92 00 00 00       	jmpq   8a0b <_ZN5alloc3vec12Vec$LT$T$GT$4push17hafa81de91dcd6feaE+0x10b>
    8979:	4d 85 ff             	test   %r15,%r15
    897c:	74 17                	je     8995 <_ZN5alloc3vec12Vec$LT$T$GT$4push17hafa81de91dcd6feaE+0x95>
    897e:	be 08 00 00 00       	mov    $0x8,%esi
    8983:	4c 89 ff             	mov    %r15,%rdi
    8986:	ff 15 1c 13 05 00    	callq  *0x5131c(%rip)        # 59ca8 <_GLOBAL_OFFSET_TABLE_+0x528>
    898c:	48 85 c0             	test   %rax,%rax
    898f:	74 7a                	je     8a0b <_ZN5alloc3vec12Vec$LT$T$GT$4push17hafa81de91dcd6feaE+0x10b>
    8991:	31 c9                	xor    %ecx,%ecx
    8993:	eb 25                	jmp    89ba <_ZN5alloc3vec12Vec$LT$T$GT$4push17hafa81de91dcd6feaE+0xba>
    8995:	b8 08 00 00 00       	mov    $0x8,%eax
    899a:	31 c9                	xor    %ecx,%ecx
    899c:	eb 1c                	jmp    89ba <_ZN5alloc3vec12Vec$LT$T$GT$4push17hafa81de91dcd6feaE+0xba>
    899e:	4d 85 ff             	test   %r15,%r15
    89a1:	74 59                	je     89fc <_ZN5alloc3vec12Vec$LT$T$GT$4push17hafa81de91dcd6feaE+0xfc>
    89a3:	be 08 00 00 00       	mov    $0x8,%esi
    89a8:	4c 89 ff             	mov    %r15,%rdi
    89ab:	ff 15 f7 12 05 00    	callq  *0x512f7(%rip)        # 59ca8 <_GLOBAL_OFFSET_TABLE_+0x528>
    89b1:	48 85 c0             	test   %rax,%rax
    89b4:	74 55                	je     8a0b <_ZN5alloc3vec12Vec$LT$T$GT$4push17hafa81de91dcd6feaE+0x10b>
    89b6:	48 8b 4b 10          	mov    0x10(%rbx),%rcx
    89ba:	48 89 03             	mov    %rax,(%rbx)
    89bd:	48 ba f1 f0 f0 f0 f0 	movabs $0xf0f0f0f0f0f0f0f1,%rdx
    89c4:	f0 f0 f0 
    89c7:	4c 89 f8             	mov    %r15,%rax
    89ca:	48 f7 e2             	mul    %rdx
    89cd:	48 c1 ea 07          	shr    $0x7,%rdx
    89d1:	48 89 53 08          	mov    %rdx,0x8(%rbx)
    89d5:	48 89 c8             	mov    %rcx,%rax
    89d8:	48 c1 e0 07          	shl    $0x7,%rax
    89dc:	48 8d 3c c8          	lea    (%rax,%rcx,8),%rdi
    89e0:	48 03 3b             	add    (%rbx),%rdi
    89e3:	ba 88 00 00 00       	mov    $0x88,%edx
    89e8:	4c 89 f6             	mov    %r14,%rsi
    89eb:	ff 15 97 15 05 00    	callq  *0x51597(%rip)        # 59f88 <memcpy@GLIBC_2.14>
    89f1:	48 83 43 10 01       	addq   $0x1,0x10(%rbx)
    89f6:	5b                   	pop    %rbx
    89f7:	41 5e                	pop    %r14
    89f9:	41 5f                	pop    %r15
    89fb:	c3                   	retq   
    89fc:	b8 08 00 00 00       	mov    $0x8,%eax
    8a01:	eb b7                	jmp    89ba <_ZN5alloc3vec12Vec$LT$T$GT$4push17hafa81de91dcd6feaE+0xba>
    8a03:	ff 15 27 11 05 00    	callq  *0x51127(%rip)        # 59b30 <_GLOBAL_OFFSET_TABLE_+0x3b0>
    8a09:	0f 0b                	ud2    
    8a0b:	be 08 00 00 00       	mov    $0x8,%esi
    8a10:	4c 89 ff             	mov    %r15,%rdi
    8a13:	ff 15 17 0f 05 00    	callq  *0x50f17(%rip)        # 59930 <_GLOBAL_OFFSET_TABLE_+0x1b0>
    8a19:	0f 0b                	ud2    
    8a1b:	48 89 c3             	mov    %rax,%rbx
    8a1e:	4c 89 f7             	mov    %r14,%rdi
    8a21:	e8 2a f4 ff ff       	callq  7e50 <_ZN4core3ptr13drop_in_place17h6dbaa61b3cf7866bE>
    8a26:	48 89 df             	mov    %rbx,%rdi
    8a29:	e8 92 e6 ff ff       	callq  70c0 <_Unwind_Resume@plt>
    8a2e:	0f 0b                	ud2    

0000000000008a30 <_ZN5alloc3vec12Vec$LT$T$GT$7reserve17h586feee7908d59ecE>:
    8a30:	41 56                	push   %r14
    8a32:	53                   	push   %rbx
    8a33:	50                   	push   %rax
    8a34:	48 89 f0             	mov    %rsi,%rax
    8a37:	48 8b 77 08          	mov    0x8(%rdi),%rsi
    8a3b:	48 8b 5f 10          	mov    0x10(%rdi),%rbx
    8a3f:	48 89 f1             	mov    %rsi,%rcx
    8a42:	48 29 d9             	sub    %rbx,%rcx
    8a45:	48 39 c1             	cmp    %rax,%rcx
    8a48:	73 71                	jae    8abb <_ZN5alloc3vec12Vec$LT$T$GT$7reserve17h586feee7908d59ecE+0x8b>
    8a4a:	48 01 c3             	add    %rax,%rbx
    8a4d:	72 74                	jb     8ac3 <_ZN5alloc3vec12Vec$LT$T$GT$7reserve17h586feee7908d59ecE+0x93>
    8a4f:	49 89 fe             	mov    %rdi,%r14
    8a52:	48 8d 04 36          	lea    (%rsi,%rsi,1),%rax
    8a56:	48 39 d8             	cmp    %rbx,%rax
    8a59:	48 0f 47 d8          	cmova  %rax,%rbx
    8a5d:	48 85 f6             	test   %rsi,%rsi
    8a60:	74 23                	je     8a85 <_ZN5alloc3vec12Vec$LT$T$GT$7reserve17h586feee7908d59ecE+0x55>
    8a62:	49 8b 06             	mov    (%r14),%rax
    8a65:	48 39 de             	cmp    %rbx,%rsi
    8a68:	74 4a                	je     8ab4 <_ZN5alloc3vec12Vec$LT$T$GT$7reserve17h586feee7908d59ecE+0x84>
    8a6a:	ba 01 00 00 00       	mov    $0x1,%edx
    8a6f:	48 89 c7             	mov    %rax,%rdi
    8a72:	48 89 d9             	mov    %rbx,%rcx
    8a75:	ff 15 bd 0d 05 00    	callq  *0x50dbd(%rip)        # 59838 <_GLOBAL_OFFSET_TABLE_+0xb8>
    8a7b:	48 85 c0             	test   %rax,%rax
    8a7e:	74 1d                	je     8a9d <_ZN5alloc3vec12Vec$LT$T$GT$7reserve17h586feee7908d59ecE+0x6d>
    8a80:	48 89 de             	mov    %rbx,%rsi
    8a83:	eb 2f                	jmp    8ab4 <_ZN5alloc3vec12Vec$LT$T$GT$7reserve17h586feee7908d59ecE+0x84>
    8a85:	48 85 db             	test   %rbx,%rbx
    8a88:	74 23                	je     8aad <_ZN5alloc3vec12Vec$LT$T$GT$7reserve17h586feee7908d59ecE+0x7d>
    8a8a:	be 01 00 00 00       	mov    $0x1,%esi
    8a8f:	48 89 df             	mov    %rbx,%rdi
    8a92:	ff 15 10 12 05 00    	callq  *0x51210(%rip)        # 59ca8 <_GLOBAL_OFFSET_TABLE_+0x528>
    8a98:	48 85 c0             	test   %rax,%rax
    8a9b:	75 e3                	jne    8a80 <_ZN5alloc3vec12Vec$LT$T$GT$7reserve17h586feee7908d59ecE+0x50>
    8a9d:	be 01 00 00 00       	mov    $0x1,%esi
    8aa2:	48 89 df             	mov    %rbx,%rdi
    8aa5:	ff 15 85 0e 05 00    	callq  *0x50e85(%rip)        # 59930 <_GLOBAL_OFFSET_TABLE_+0x1b0>
    8aab:	0f 0b                	ud2    
    8aad:	b8 01 00 00 00       	mov    $0x1,%eax
    8ab2:	31 f6                	xor    %esi,%esi
    8ab4:	49 89 06             	mov    %rax,(%r14)
    8ab7:	49 89 76 08          	mov    %rsi,0x8(%r14)
    8abb:	48 83 c4 08          	add    $0x8,%rsp
    8abf:	5b                   	pop    %rbx
    8ac0:	41 5e                	pop    %r14
    8ac2:	c3                   	retq   
    8ac3:	ff 15 67 10 05 00    	callq  *0x51067(%rip)        # 59b30 <_GLOBAL_OFFSET_TABLE_+0x3b0>
    8ac9:	0f 0b                	ud2    
    8acb:	0f 1f 44 00 00       	nopl   0x0(%rax,%rax,1)

0000000000008ad0 <_ZN5alloc3vec12Vec$LT$T$GT$7reserve17h63086fd066835a4bE>:
    8ad0:	41 56                	push   %r14
    8ad2:	53                   	push   %rbx
    8ad3:	50                   	push   %rax
    8ad4:	48 89 f1             	mov    %rsi,%rcx
    8ad7:	48 8b 77 08          	mov    0x8(%rdi),%rsi
    8adb:	48 8b 47 10          	mov    0x10(%rdi),%rax
    8adf:	48 89 f2             	mov    %rsi,%rdx
    8ae2:	48 29 c2             	sub    %rax,%rdx
    8ae5:	48 39 ca             	cmp    %rcx,%rdx
    8ae8:	0f 83 8a 00 00 00    	jae    8b78 <_ZN5alloc3vec12Vec$LT$T$GT$7reserve17h63086fd066835a4bE+0xa8>
    8aee:	48 01 c8             	add    %rcx,%rax
    8af1:	0f 82 89 00 00 00    	jb     8b80 <_ZN5alloc3vec12Vec$LT$T$GT$7reserve17h63086fd066835a4bE+0xb0>
    8af7:	48 8d 0c 36          	lea    (%rsi,%rsi,1),%rcx
    8afb:	48 39 c1             	cmp    %rax,%rcx
    8afe:	48 0f 47 c1          	cmova  %rcx,%rax
    8b02:	b9 08 00 00 00       	mov    $0x8,%ecx
    8b07:	48 f7 e1             	mul    %rcx
    8b0a:	70 74                	jo     8b80 <_ZN5alloc3vec12Vec$LT$T$GT$7reserve17h63086fd066835a4bE+0xb0>
    8b0c:	48 89 fb             	mov    %rdi,%rbx
    8b0f:	49 89 c6             	mov    %rax,%r14
    8b12:	48 85 f6             	test   %rsi,%rsi
    8b15:	74 29                	je     8b40 <_ZN5alloc3vec12Vec$LT$T$GT$7reserve17h63086fd066835a4bE+0x70>
    8b17:	48 c1 e6 03          	shl    $0x3,%rsi
    8b1b:	48 8b 03             	mov    (%rbx),%rax
    8b1e:	4c 39 f6             	cmp    %r14,%rsi
    8b21:	74 4a                	je     8b6d <_ZN5alloc3vec12Vec$LT$T$GT$7reserve17h63086fd066835a4bE+0x9d>
    8b23:	48 85 f6             	test   %rsi,%rsi
    8b26:	74 18                	je     8b40 <_ZN5alloc3vec12Vec$LT$T$GT$7reserve17h63086fd066835a4bE+0x70>
    8b28:	ba 08 00 00 00       	mov    $0x8,%edx
    8b2d:	48 89 c7             	mov    %rax,%rdi
    8b30:	4c 89 f1             	mov    %r14,%rcx
    8b33:	ff 15 ff 0c 05 00    	callq  *0x50cff(%rip)        # 59838 <_GLOBAL_OFFSET_TABLE_+0xb8>
    8b39:	48 85 c0             	test   %rax,%rax
    8b3c:	75 2f                	jne    8b6d <_ZN5alloc3vec12Vec$LT$T$GT$7reserve17h63086fd066835a4bE+0x9d>
    8b3e:	eb 18                	jmp    8b58 <_ZN5alloc3vec12Vec$LT$T$GT$7reserve17h63086fd066835a4bE+0x88>
    8b40:	4d 85 f6             	test   %r14,%r14
    8b43:	74 23                	je     8b68 <_ZN5alloc3vec12Vec$LT$T$GT$7reserve17h63086fd066835a4bE+0x98>
    8b45:	be 08 00 00 00       	mov    $0x8,%esi
    8b4a:	4c 89 f7             	mov    %r14,%rdi
    8b4d:	ff 15 55 11 05 00    	callq  *0x51155(%rip)        # 59ca8 <_GLOBAL_OFFSET_TABLE_+0x528>
    8b53:	48 85 c0             	test   %rax,%rax
    8b56:	75 15                	jne    8b6d <_ZN5alloc3vec12Vec$LT$T$GT$7reserve17h63086fd066835a4bE+0x9d>
    8b58:	be 08 00 00 00       	mov    $0x8,%esi
    8b5d:	4c 89 f7             	mov    %r14,%rdi
    8b60:	ff 15 ca 0d 05 00    	callq  *0x50dca(%rip)        # 59930 <_GLOBAL_OFFSET_TABLE_+0x1b0>
    8b66:	0f 0b                	ud2    
    8b68:	b8 08 00 00 00       	mov    $0x8,%eax
    8b6d:	48 89 03             	mov    %rax,(%rbx)
    8b70:	49 c1 ee 03          	shr    $0x3,%r14
    8b74:	4c 89 73 08          	mov    %r14,0x8(%rbx)
    8b78:	48 83 c4 08          	add    $0x8,%rsp
    8b7c:	5b                   	pop    %rbx
    8b7d:	41 5e                	pop    %r14
    8b7f:	c3                   	retq   
    8b80:	ff 15 aa 0f 05 00    	callq  *0x50faa(%rip)        # 59b30 <_GLOBAL_OFFSET_TABLE_+0x3b0>
    8b86:	0f 0b                	ud2    
    8b88:	0f 1f 84 00 00 00 00 	nopl   0x0(%rax,%rax,1)
    8b8f:	00 

0000000000008b90 <_ZN5alloc5alloc8box_free17h7f556128946ce4d5E>:
    8b90:	48 89 f0             	mov    %rsi,%rax
    8b93:	48 8b 76 08          	mov    0x8(%rsi),%rsi
    8b97:	48 85 f6             	test   %rsi,%rsi
    8b9a:	74 0a                	je     8ba6 <_ZN5alloc5alloc8box_free17h7f556128946ce4d5E+0x16>
    8b9c:	48 8b 50 10          	mov    0x10(%rax),%rdx
    8ba0:	ff 25 ca 0e 05 00    	jmpq   *0x50eca(%rip)        # 59a70 <_GLOBAL_OFFSET_TABLE_+0x2f0>
    8ba6:	c3                   	retq   
    8ba7:	66 0f 1f 84 00 00 00 	nopw   0x0(%rax,%rax,1)
    8bae:	00 00 

0000000000008bb0 <_ZN5alloc7raw_vec19RawVec$LT$T$C$A$GT$11allocate_in28_$u7b$$u7b$closure$u7d$$u7d$17h58abb96f69233ea5E>:
    8bb0:	50                   	push   %rax
    8bb1:	48 8b 07             	mov    (%rdi),%rax
    8bb4:	48 8b 77 08          	mov    0x8(%rdi),%rsi
    8bb8:	48 89 c7             	mov    %rax,%rdi
    8bbb:	ff 15 6f 0d 05 00    	callq  *0x50d6f(%rip)        # 59930 <_GLOBAL_OFFSET_TABLE_+0x1b0>
    8bc1:	0f 0b                	ud2    
    8bc3:	66 2e 0f 1f 84 00 00 	nopw   %cs:0x0(%rax,%rax,1)
    8bca:	00 00 00 
    8bcd:	0f 1f 00             	nopl   (%rax)

0000000000008bd0 <_ZN5alloc7raw_vec19RawVec$LT$T$C$A$GT$11allocate_in28_$u7b$$u7b$closure$u7d$$u7d$17hf8ad009bc087ee87E>:
    8bd0:	50                   	push   %rax
    8bd1:	ff 15 59 0f 05 00    	callq  *0x50f59(%rip)        # 59b30 <_GLOBAL_OFFSET_TABLE_+0x3b0>
    8bd7:	0f 0b                	ud2    
    8bd9:	0f 1f 80 00 00 00 00 	nopl   0x0(%rax)

0000000000008be0 <_ZN5alloc7raw_vec19RawVec$LT$T$C$A$GT$6double17hb2c5705e0a2c9015E>:
    8be0:	41 56                	push   %r14
    8be2:	53                   	push   %rbx
    8be3:	50                   	push   %rax
    8be4:	49 89 fe             	mov    %rdi,%r14
    8be7:	48 8b 77 08          	mov    0x8(%rdi),%rsi
    8beb:	48 89 f0             	mov    %rsi,%rax
    8bee:	48 c1 e0 04          	shl    $0x4,%rax
    8bf2:	bb 20 00 00 00       	mov    $0x20,%ebx
    8bf7:	48 85 f6             	test   %rsi,%rsi
    8bfa:	48 0f 45 d8          	cmovne %rax,%rbx
    8bfe:	74 29                	je     8c29 <_ZN5alloc7raw_vec19RawVec$LT$T$C$A$GT$6double17hb2c5705e0a2c9015E+0x49>
    8c00:	48 c1 e6 03          	shl    $0x3,%rsi
    8c04:	49 8b 06             	mov    (%r14),%rax
    8c07:	48 39 de             	cmp    %rbx,%rsi
    8c0a:	74 4a                	je     8c56 <_ZN5alloc7raw_vec19RawVec$LT$T$C$A$GT$6double17hb2c5705e0a2c9015E+0x76>
    8c0c:	48 85 f6             	test   %rsi,%rsi
    8c0f:	74 18                	je     8c29 <_ZN5alloc7raw_vec19RawVec$LT$T$C$A$GT$6double17hb2c5705e0a2c9015E+0x49>
    8c11:	ba 08 00 00 00       	mov    $0x8,%edx
    8c16:	48 89 c7             	mov    %rax,%rdi
    8c19:	48 89 d9             	mov    %rbx,%rcx
    8c1c:	ff 15 16 0c 05 00    	callq  *0x50c16(%rip)        # 59838 <_GLOBAL_OFFSET_TABLE_+0xb8>
    8c22:	48 85 c0             	test   %rax,%rax
    8c25:	75 2f                	jne    8c56 <_ZN5alloc7raw_vec19RawVec$LT$T$C$A$GT$6double17hb2c5705e0a2c9015E+0x76>
    8c27:	eb 18                	jmp    8c41 <_ZN5alloc7raw_vec19RawVec$LT$T$C$A$GT$6double17hb2c5705e0a2c9015E+0x61>
    8c29:	48 85 db             	test   %rbx,%rbx
    8c2c:	74 23                	je     8c51 <_ZN5alloc7raw_vec19RawVec$LT$T$C$A$GT$6double17hb2c5705e0a2c9015E+0x71>
    8c2e:	be 08 00 00 00       	mov    $0x8,%esi
    8c33:	48 89 df             	mov    %rbx,%rdi
    8c36:	ff 15 6c 10 05 00    	callq  *0x5106c(%rip)        # 59ca8 <_GLOBAL_OFFSET_TABLE_+0x528>
    8c3c:	48 85 c0             	test   %rax,%rax
    8c3f:	75 15                	jne    8c56 <_ZN5alloc7raw_vec19RawVec$LT$T$C$A$GT$6double17hb2c5705e0a2c9015E+0x76>
    8c41:	be 08 00 00 00       	mov    $0x8,%esi
    8c46:	48 89 df             	mov    %rbx,%rdi
    8c49:	ff 15 e1 0c 05 00    	callq  *0x50ce1(%rip)        # 59930 <_GLOBAL_OFFSET_TABLE_+0x1b0>
    8c4f:	0f 0b                	ud2    
    8c51:	b8 08 00 00 00       	mov    $0x8,%eax
    8c56:	49 89 06             	mov    %rax,(%r14)
    8c59:	48 c1 eb 03          	shr    $0x3,%rbx
    8c5d:	49 89 5e 08          	mov    %rbx,0x8(%r14)
    8c61:	48 83 c4 08          	add    $0x8,%rsp
    8c65:	5b                   	pop    %rbx
    8c66:	41 5e                	pop    %r14
    8c68:	c3                   	retq   
    8c69:	0f 1f 80 00 00 00 00 	nopl   0x0(%rax)

0000000000008c70 <_ZN60_$LT$alloc..string..String$u20$as$u20$core..fmt..Display$GT$3fmt17h517b077bfbda8f02E>:
    8c70:	48 89 f2             	mov    %rsi,%rdx
    8c73:	48 8b 07             	mov    (%rdi),%rax
    8c76:	48 8b 77 10          	mov    0x10(%rdi),%rsi
    8c7a:	48 89 c7             	mov    %rax,%rdi
    8c7d:	ff 25 c5 0b 05 00    	jmpq   *0x50bc5(%rip)        # 59848 <_GLOBAL_OFFSET_TABLE_+0xc8>
    8c83:	66 2e 0f 1f 84 00 00 	nopw   %cs:0x0(%rax,%rax,1)
    8c8a:	00 00 00 
    8c8d:	0f 1f 00             	nopl   (%rax)

0000000000008c90 <_ZN81_$LT$std..collections..hash..map..DefaultHasher$u20$as$u20$core..hash..Hasher$GT$5write17h76cdf64d0087c50bE>:
    8c90:	53                   	push   %rbx
    8c91:	48 01 57 10          	add    %rdx,0x10(%rdi)
    8c95:	4c 8b 4f 40          	mov    0x40(%rdi),%r9
    8c99:	4d 85 c9             	test   %r9,%r9
    8c9c:	74 24                	je     8cc2 <_ZN81_$LT$std..collections..hash..map..DefaultHasher$u20$as$u20$core..hash..Hasher$GT$5write17h76cdf64d0087c50bE+0x32>
    8c9e:	41 bb 08 00 00 00    	mov    $0x8,%r11d
    8ca4:	4d 29 cb             	sub    %r9,%r11
    8ca7:	49 39 d3             	cmp    %rdx,%r11
    8caa:	48 89 d0             	mov    %rdx,%rax
    8cad:	49 0f 42 c3          	cmovb  %r11,%rax
    8cb1:	48 83 f8 04          	cmp    $0x4,%rax
    8cb5:	72 13                	jb     8cca <_ZN81_$LT$std..collections..hash..map..DefaultHasher$u20$as$u20$core..hash..Hasher$GT$5write17h76cdf64d0087c50bE+0x3a>
    8cb7:	44 8b 16             	mov    (%rsi),%r10d
    8cba:	41 b8 04 00 00 00    	mov    $0x4,%r8d
    8cc0:	eb 0e                	jmp    8cd0 <_ZN81_$LT$std..collections..hash..map..DefaultHasher$u20$as$u20$core..hash..Hasher$GT$5write17h76cdf64d0087c50bE+0x40>
    8cc2:	45 31 db             	xor    %r11d,%r11d
    8cc5:	e9 be 00 00 00       	jmpq   8d88 <_ZN81_$LT$std..collections..hash..map..DefaultHasher$u20$as$u20$core..hash..Hasher$GT$5write17h76cdf64d0087c50bE+0xf8>
    8cca:	45 31 d2             	xor    %r10d,%r10d
    8ccd:	45 31 c0             	xor    %r8d,%r8d
    8cd0:	4c 89 c1             	mov    %r8,%rcx
    8cd3:	48 83 c9 01          	or     $0x1,%rcx
    8cd7:	48 39 c1             	cmp    %rax,%rcx
    8cda:	73 17                	jae    8cf3 <_ZN81_$LT$std..collections..hash..map..DefaultHasher$u20$as$u20$core..hash..Hasher$GT$5write17h76cdf64d0087c50bE+0x63>
    8cdc:	42 0f b7 1c 06       	movzwl (%rsi,%r8,1),%ebx
    8ce1:	42 8d 0c c5 00 00 00 	lea    0x0(,%r8,8),%ecx
    8ce8:	00 
    8ce9:	48 d3 e3             	shl    %cl,%rbx
    8cec:	49 09 da             	or     %rbx,%r10
    8cef:	49 83 c8 02          	or     $0x2,%r8
    8cf3:	49 39 c0             	cmp    %rax,%r8
    8cf6:	73 12                	jae    8d0a <_ZN81_$LT$std..collections..hash..map..DefaultHasher$u20$as$u20$core..hash..Hasher$GT$5write17h76cdf64d0087c50bE+0x7a>
    8cf8:	42 0f b6 04 06       	movzbl (%rsi,%r8,1),%eax
    8cfd:	41 c1 e0 03          	shl    $0x3,%r8d
    8d01:	44 89 c1             	mov    %r8d,%ecx
    8d04:	48 d3 e0             	shl    %cl,%rax
    8d07:	49 09 c2             	or     %rax,%r10
    8d0a:	42 8d 0c cd 00 00 00 	lea    0x0(,%r9,8),%ecx
    8d11:	00 
    8d12:	49 d3 e2             	shl    %cl,%r10
    8d15:	4c 0b 57 38          	or     0x38(%rdi),%r10
    8d19:	4c 89 57 38          	mov    %r10,0x38(%rdi)
    8d1d:	49 39 d3             	cmp    %rdx,%r11
    8d20:	76 08                	jbe    8d2a <_ZN81_$LT$std..collections..hash..map..DefaultHasher$u20$as$u20$core..hash..Hasher$GT$5write17h76cdf64d0087c50bE+0x9a>
    8d22:	49 01 d1             	add    %rdx,%r9
    8d25:	e9 30 01 00 00       	jmpq   8e5a <_ZN81_$LT$std..collections..hash..map..DefaultHasher$u20$as$u20$core..hash..Hasher$GT$5write17h76cdf64d0087c50bE+0x1ca>
    8d2a:	48 8b 4f 30          	mov    0x30(%rdi),%rcx
    8d2e:	4c 31 d1             	xor    %r10,%rcx
    8d31:	48 8b 5f 28          	mov    0x28(%rdi),%rbx
    8d35:	4c 8b 47 18          	mov    0x18(%rdi),%r8
    8d39:	49 01 d8             	add    %rbx,%r8
    8d3c:	48 c1 c3 0d          	rol    $0xd,%rbx
    8d40:	4c 31 c3             	xor    %r8,%rbx
    8d43:	49 c1 c0 20          	rol    $0x20,%r8
    8d47:	48 8b 47 20          	mov    0x20(%rdi),%rax
    8d4b:	48 01 c8             	add    %rcx,%rax
    8d4e:	48 c1 c1 10          	rol    $0x10,%rcx
    8d52:	48 31 c1             	xor    %rax,%rcx
    8d55:	49 01 c8             	add    %rcx,%r8
    8d58:	48 c1 c1 15          	rol    $0x15,%rcx
    8d5c:	4c 31 c1             	xor    %r8,%rcx
    8d5f:	48 89 4f 30          	mov    %rcx,0x30(%rdi)
    8d63:	48 01 d8             	add    %rbx,%rax
    8d66:	48 c1 c3 11          	rol    $0x11,%rbx
    8d6a:	48 31 c3             	xor    %rax,%rbx
    8d6d:	48 89 5f 28          	mov    %rbx,0x28(%rdi)
    8d71:	48 c1 c0 20          	rol    $0x20,%rax
    8d75:	48 89 47 20          	mov    %rax,0x20(%rdi)
    8d79:	4d 31 d0             	xor    %r10,%r8
    8d7c:	4c 89 47 18          	mov    %r8,0x18(%rdi)
    8d80:	48 c7 47 40 00 00 00 	movq   $0x0,0x40(%rdi)
    8d87:	00 
    8d88:	4c 29 da             	sub    %r11,%rdx
    8d8b:	41 89 d1             	mov    %edx,%r9d
    8d8e:	41 83 e1 07          	and    $0x7,%r9d
    8d92:	4c 29 ca             	sub    %r9,%rdx
    8d95:	49 39 d3             	cmp    %rdx,%r11
    8d98:	73 69                	jae    8e03 <_ZN81_$LT$std..collections..hash..map..DefaultHasher$u20$as$u20$core..hash..Hasher$GT$5write17h76cdf64d0087c50bE+0x173>
    8d9a:	48 8b 4f 30          	mov    0x30(%rdi),%rcx
    8d9e:	4c 8b 57 18          	mov    0x18(%rdi),%r10
    8da2:	4c 8b 47 20          	mov    0x20(%rdi),%r8
    8da6:	48 8b 47 28          	mov    0x28(%rdi),%rax
    8daa:	66 0f 1f 44 00 00    	nopw   0x0(%rax,%rax,1)
    8db0:	49 01 c2             	add    %rax,%r10
    8db3:	48 c1 c0 0d          	rol    $0xd,%rax
    8db7:	4a 8b 1c 1e          	mov    (%rsi,%r11,1),%rbx
    8dbb:	4c 31 d0             	xor    %r10,%rax
    8dbe:	49 c1 c2 20          	rol    $0x20,%r10
    8dc2:	48 31 d9             	xor    %rbx,%rcx
    8dc5:	49 01 c8             	add    %rcx,%r8
    8dc8:	48 c1 c1 10          	rol    $0x10,%rcx
    8dcc:	4c 31 c1             	xor    %r8,%rcx
    8dcf:	49 01 ca             	add    %rcx,%r10
    8dd2:	48 c1 c1 15          	rol    $0x15,%rcx
    8dd6:	49 01 c0             	add    %rax,%r8
    8dd9:	48 c1 c0 11          	rol    $0x11,%rax
    8ddd:	4c 31 c0             	xor    %r8,%rax
    8de0:	49 c1 c0 20          	rol    $0x20,%r8
    8de4:	4c 31 d1             	xor    %r10,%rcx
    8de7:	49 31 da             	xor    %rbx,%r10
    8dea:	49 83 c3 08          	add    $0x8,%r11
    8dee:	49 39 d3             	cmp    %rdx,%r11
    8df1:	72 bd                	jb     8db0 <_ZN81_$LT$std..collections..hash..map..DefaultHasher$u20$as$u20$core..hash..Hasher$GT$5write17h76cdf64d0087c50bE+0x120>
    8df3:	48 89 4f 30          	mov    %rcx,0x30(%rdi)
    8df7:	4c 89 57 18          	mov    %r10,0x18(%rdi)
    8dfb:	48 89 47 28          	mov    %rax,0x28(%rdi)
    8dff:	4c 89 47 20          	mov    %r8,0x20(%rdi)
    8e03:	49 83 f9 04          	cmp    $0x4,%r9
    8e07:	72 0b                	jb     8e14 <_ZN81_$LT$std..collections..hash..map..DefaultHasher$u20$as$u20$core..hash..Hasher$GT$5write17h76cdf64d0087c50bE+0x184>
    8e09:	46 8b 04 1e          	mov    (%rsi,%r11,1),%r8d
    8e0d:	ba 04 00 00 00       	mov    $0x4,%edx
    8e12:	eb 05                	jmp    8e19 <_ZN81_$LT$std..collections..hash..map..DefaultHasher$u20$as$u20$core..hash..Hasher$GT$5write17h76cdf64d0087c50bE+0x189>
    8e14:	45 31 c0             	xor    %r8d,%r8d
    8e17:	31 d2                	xor    %edx,%edx
    8e19:	48 89 d0             	mov    %rdx,%rax
    8e1c:	48 83 c8 01          	or     $0x1,%rax
    8e20:	4c 39 c8             	cmp    %r9,%rax
    8e23:	73 19                	jae    8e3e <_ZN81_$LT$std..collections..hash..map..DefaultHasher$u20$as$u20$core..hash..Hasher$GT$5write17h76cdf64d0087c50bE+0x1ae>
    8e25:	4a 8d 04 1a          	lea    (%rdx,%r11,1),%rax
    8e29:	0f b7 04 06          	movzwl (%rsi,%rax,1),%eax
    8e2d:	8d 0c d5 00 00 00 00 	lea    0x0(,%rdx,8),%ecx
    8e34:	48 d3 e0             	shl    %cl,%rax
    8e37:	49 09 c0             	or     %rax,%r8
    8e3a:	48 83 ca 02          	or     $0x2,%rdx
    8e3e:	4c 39 ca             	cmp    %r9,%rdx
    8e41:	73 13                	jae    8e56 <_ZN81_$LT$std..collections..hash..map..DefaultHasher$u20$as$u20$core..hash..Hasher$GT$5write17h76cdf64d0087c50bE+0x1c6>
    8e43:	49 01 d3             	add    %rdx,%r11
    8e46:	42 0f b6 04 1e       	movzbl (%rsi,%r11,1),%eax
    8e4b:	c1 e2 03             	shl    $0x3,%edx
    8e4e:	89 d1                	mov    %edx,%ecx
    8e50:	48 d3 e0             	shl    %cl,%rax
    8e53:	49 09 c0             	or     %rax,%r8
    8e56:	4c 89 47 38          	mov    %r8,0x38(%rdi)
    8e5a:	4c 89 4f 40          	mov    %r9,0x40(%rdi)
    8e5e:	5b                   	pop    %rbx
    8e5f:	c3                   	retq   

0000000000008e60 <_ZN91_$LT$std..panicking..begin_panic..PanicPayload$LT$A$GT$$u20$as$u20$core..panic..BoxMeUp$GT$3get17h602106fa2ce7ec95E>:
    8e60:	50                   	push   %rax
    8e61:	48 83 3f 00          	cmpq   $0x0,(%rdi)
    8e65:	74 0c                	je     8e73 <_ZN91_$LT$std..panicking..begin_panic..PanicPayload$LT$A$GT$$u20$as$u20$core..panic..BoxMeUp$GT$3get17h602106fa2ce7ec95E+0x13>
    8e67:	48 89 f8             	mov    %rdi,%rax
    8e6a:	48 8d 15 ef e2 04 00 	lea    0x4e2ef(%rip),%rdx        # 57160 <__do_global_dtors_aux_fini_array_entry+0x210>
    8e71:	59                   	pop    %rcx
    8e72:	c3                   	retq   
    8e73:	ff 15 a7 0c 05 00    	callq  *0x50ca7(%rip)        # 59b20 <_GLOBAL_OFFSET_TABLE_+0x3a0>
    8e79:	0f 0b                	ud2    
    8e7b:	0f 1f 44 00 00       	nopl   0x0(%rax,%rax,1)

0000000000008e80 <_ZN91_$LT$std..panicking..begin_panic..PanicPayload$LT$A$GT$$u20$as$u20$core..panic..BoxMeUp$GT$8take_box17h805eb2d1375f1263E>:
    8e80:	41 56                	push   %r14
    8e82:	53                   	push   %rbx
    8e83:	50                   	push   %rax
    8e84:	48 8b 1f             	mov    (%rdi),%rbx
    8e87:	4c 8b 77 08          	mov    0x8(%rdi),%r14
    8e8b:	48 c7 07 00 00 00 00 	movq   $0x0,(%rdi)
    8e92:	48 85 db             	test   %rbx,%rbx
    8e95:	74 2b                	je     8ec2 <_ZN91_$LT$std..panicking..begin_panic..PanicPayload$LT$A$GT$$u20$as$u20$core..panic..BoxMeUp$GT$8take_box17h805eb2d1375f1263E+0x42>
    8e97:	bf 10 00 00 00       	mov    $0x10,%edi
    8e9c:	be 08 00 00 00       	mov    $0x8,%esi
    8ea1:	ff 15 01 0e 05 00    	callq  *0x50e01(%rip)        # 59ca8 <_GLOBAL_OFFSET_TABLE_+0x528>
    8ea7:	48 85 c0             	test   %rax,%rax
    8eaa:	74 1e                	je     8eca <_ZN91_$LT$std..panicking..begin_panic..PanicPayload$LT$A$GT$$u20$as$u20$core..panic..BoxMeUp$GT$8take_box17h805eb2d1375f1263E+0x4a>
    8eac:	48 89 18             	mov    %rbx,(%rax)
    8eaf:	4c 89 70 08          	mov    %r14,0x8(%rax)
    8eb3:	48 8d 15 a6 e2 04 00 	lea    0x4e2a6(%rip),%rdx        # 57160 <__do_global_dtors_aux_fini_array_entry+0x210>
    8eba:	48 83 c4 08          	add    $0x8,%rsp
    8ebe:	5b                   	pop    %rbx
    8ebf:	41 5e                	pop    %r14
    8ec1:	c3                   	retq   
    8ec2:	ff 15 58 0c 05 00    	callq  *0x50c58(%rip)        # 59b20 <_GLOBAL_OFFSET_TABLE_+0x3a0>
    8ec8:	0f 0b                	ud2    
    8eca:	bf 10 00 00 00       	mov    $0x10,%edi
    8ecf:	be 08 00 00 00       	mov    $0x8,%esi
    8ed4:	ff 15 56 0a 05 00    	callq  *0x50a56(%rip)        # 59930 <_GLOBAL_OFFSET_TABLE_+0x1b0>
    8eda:	0f 0b                	ud2    
    8edc:	0f 1f 40 00          	nopl   0x0(%rax)

0000000000008ee0 <_ZN9hashbrown3map9make_hash17hf4b9648c489593b4E>:
    8ee0:	41 56                	push   %r14
    8ee2:	53                   	push   %rbx
    8ee3:	48 83 ec 68          	sub    $0x68,%rsp
    8ee7:	48 8b 07             	mov    (%rdi),%rax
    8eea:	48 8b 4f 08          	mov    0x8(%rdi),%rcx
    8eee:	49 b8 75 65 73 70 65 	movabs $0x736f6d6570736575,%r8
    8ef5:	6d 6f 73 
    8ef8:	49 31 c0             	xor    %rax,%r8
    8efb:	48 bf 6d 6f 64 6e 61 	movabs $0x646f72616e646f6d,%rdi
    8f02:	72 6f 64 
    8f05:	48 31 cf             	xor    %rcx,%rdi
    8f08:	48 bb 61 72 65 6e 65 	movabs $0x6c7967656e657261,%rbx
    8f0f:	67 79 6c 
    8f12:	48 31 c3             	xor    %rax,%rbx
    8f15:	48 ba 73 65 74 79 62 	movabs $0x7465646279746573,%rdx
    8f1c:	64 65 74 
    8f1f:	48 31 ca             	xor    %rcx,%rdx
    8f22:	48 89 44 24 20       	mov    %rax,0x20(%rsp)
    8f27:	48 89 4c 24 28       	mov    %rcx,0x28(%rsp)
    8f2c:	48 c7 44 24 30 00 00 	movq   $0x0,0x30(%rsp)
    8f33:	00 00 
    8f35:	4c 89 44 24 38       	mov    %r8,0x38(%rsp)
    8f3a:	48 89 5c 24 40       	mov    %rbx,0x40(%rsp)
    8f3f:	48 89 7c 24 48       	mov    %rdi,0x48(%rsp)
    8f44:	48 89 54 24 50       	mov    %rdx,0x50(%rsp)
    8f49:	66 0f ef c0          	pxor   %xmm0,%xmm0
    8f4d:	f3 0f 7f 44 24 58    	movdqu %xmm0,0x58(%rsp)
    8f53:	48 8b 06             	mov    (%rsi),%rax
    8f56:	48 89 c1             	mov    %rax,%rcx
    8f59:	48 c1 e9 31          	shr    $0x31,%rcx
    8f5d:	74 43                	je     8fa2 <_ZN9hashbrown3map9make_hash17hf4b9648c489593b4E+0xc2>
    8f5f:	48 81 f9 fe 7f 00 00 	cmp    $0x7ffe,%rcx
    8f66:	77 20                	ja     8f88 <_ZN9hashbrown3map9make_hash17hf4b9648c489593b4E+0xa8>
    8f68:	48 b9 ff ff ff ff ff 	movabs $0xfffdffffffffffff,%rcx
    8f6f:	ff fd ff 
    8f72:	48 01 c8             	add    %rcx,%rax
    8f75:	48 83 c0 01          	add    $0x1,%rax
    8f79:	66 48 0f 6e c0       	movq   %rax,%xmm0
    8f7e:	ff 15 8c 0f 05 00    	callq  *0x50f8c(%rip)        # 59f10 <floor@GLIBC_2.2.5>
    8f84:	f2 0f 2c c0          	cvttsd2si %xmm0,%eax
    8f88:	89 44 24 08          	mov    %eax,0x8(%rsp)
    8f8c:	48 8d 7c 24 20       	lea    0x20(%rsp),%rdi
    8f91:	48 8d 74 24 08       	lea    0x8(%rsp),%rsi
    8f96:	ba 04 00 00 00       	mov    $0x4,%edx
    8f9b:	e8 f0 fc ff ff       	callq  8c90 <_ZN81_$LT$std..collections..hash..map..DefaultHasher$u20$as$u20$core..hash..Hasher$GT$5write17h76cdf64d0087c50bE>
    8fa0:	eb 58                	jmp    8ffa <_ZN9hashbrown3map9make_hash17hf4b9648c489593b4E+0x11a>
    8fa2:	48 89 04 24          	mov    %rax,(%rsp)
    8fa6:	48 8d 7c 24 08       	lea    0x8(%rsp),%rdi
    8fab:	48 89 e6             	mov    %rsp,%rsi
    8fae:	ff 15 a4 0d 05 00    	callq  *0x50da4(%rip)        # 59d58 <_GLOBAL_OFFSET_TABLE_+0x5d8>
    8fb4:	48 8b 5c 24 08       	mov    0x8(%rsp),%rbx
    8fb9:	48 8b 54 24 18       	mov    0x18(%rsp),%rdx
    8fbe:	4c 8d 74 24 20       	lea    0x20(%rsp),%r14
    8fc3:	4c 89 f7             	mov    %r14,%rdi
    8fc6:	48 89 de             	mov    %rbx,%rsi
    8fc9:	e8 c2 fc ff ff       	callq  8c90 <_ZN81_$LT$std..collections..hash..map..DefaultHasher$u20$as$u20$core..hash..Hasher$GT$5write17h76cdf64d0087c50bE>
    8fce:	c6 04 24 ff          	movb   $0xff,(%rsp)
    8fd2:	48 89 e6             	mov    %rsp,%rsi
    8fd5:	ba 01 00 00 00       	mov    $0x1,%edx
    8fda:	4c 89 f7             	mov    %r14,%rdi
    8fdd:	e8 ae fc ff ff       	callq  8c90 <_ZN81_$LT$std..collections..hash..map..DefaultHasher$u20$as$u20$core..hash..Hasher$GT$5write17h76cdf64d0087c50bE>
    8fe2:	48 8b 74 24 10       	mov    0x10(%rsp),%rsi
    8fe7:	48 85 f6             	test   %rsi,%rsi
    8fea:	74 0e                	je     8ffa <_ZN9hashbrown3map9make_hash17hf4b9648c489593b4E+0x11a>
    8fec:	ba 01 00 00 00       	mov    $0x1,%edx
    8ff1:	48 89 df             	mov    %rbx,%rdi
    8ff4:	ff 15 76 0a 05 00    	callq  *0x50a76(%rip)        # 59a70 <_GLOBAL_OFFSET_TABLE_+0x2f0>
    8ffa:	48 8b 7c 24 30       	mov    0x30(%rsp),%rdi
    8fff:	48 8b 44 24 48       	mov    0x48(%rsp),%rax
    9004:	48 c1 e7 38          	shl    $0x38,%rdi
    9008:	48 0b 7c 24 58       	or     0x58(%rsp),%rdi
    900d:	48 8b 4c 24 50       	mov    0x50(%rsp),%rcx
    9012:	48 8b 74 24 38       	mov    0x38(%rsp),%rsi
    9017:	48 01 c6             	add    %rax,%rsi
    901a:	48 c1 c0 0d          	rol    $0xd,%rax
    901e:	48 31 f9             	xor    %rdi,%rcx
    9021:	48 31 f0             	xor    %rsi,%rax
    9024:	48 c1 c6 20          	rol    $0x20,%rsi
    9028:	48 8b 54 24 40       	mov    0x40(%rsp),%rdx
    902d:	48 01 ca             	add    %rcx,%rdx
    9030:	48 c1 c1 10          	rol    $0x10,%rcx
    9034:	48 31 d1             	xor    %rdx,%rcx
    9037:	48 01 ce             	add    %rcx,%rsi
    903a:	48 c1 c1 15          	rol    $0x15,%rcx
    903e:	48 01 c2             	add    %rax,%rdx
    9041:	48 c1 c0 11          	rol    $0x11,%rax
    9045:	48 31 f1             	xor    %rsi,%rcx
    9048:	48 31 d0             	xor    %rdx,%rax
    904b:	48 c1 c2 20          	rol    $0x20,%rdx
    904f:	48 31 fe             	xor    %rdi,%rsi
    9052:	48 01 c6             	add    %rax,%rsi
    9055:	48 c1 c0 0d          	rol    $0xd,%rax
    9059:	48 31 f0             	xor    %rsi,%rax
    905c:	48 c1 c6 20          	rol    $0x20,%rsi
    9060:	48 81 f2 ff 00 00 00 	xor    $0xff,%rdx
    9067:	48 01 ca             	add    %rcx,%rdx
    906a:	48 c1 c1 10          	rol    $0x10,%rcx
    906e:	48 31 d1             	xor    %rdx,%rcx
    9071:	48 01 ce             	add    %rcx,%rsi
    9074:	48 c1 c1 15          	rol    $0x15,%rcx
    9078:	48 01 c2             	add    %rax,%rdx
    907b:	48 c1 c0 11          	rol    $0x11,%rax
    907f:	48 31 d0             	xor    %rdx,%rax
    9082:	48 c1 c2 20          	rol    $0x20,%rdx
    9086:	48 31 f1             	xor    %rsi,%rcx
    9089:	48 01 c6             	add    %rax,%rsi
    908c:	48 c1 c0 0d          	rol    $0xd,%rax
    9090:	48 31 f0             	xor    %rsi,%rax
    9093:	48 c1 c6 20          	rol    $0x20,%rsi
    9097:	48 01 ca             	add    %rcx,%rdx
    909a:	48 c1 c1 10          	rol    $0x10,%rcx
    909e:	48 31 d1             	xor    %rdx,%rcx
    90a1:	48 01 ce             	add    %rcx,%rsi
    90a4:	48 c1 c1 15          	rol    $0x15,%rcx
    90a8:	48 01 c2             	add    %rax,%rdx
    90ab:	48 c1 c0 11          	rol    $0x11,%rax
    90af:	48 31 d0             	xor    %rdx,%rax
    90b2:	48 c1 c2 20          	rol    $0x20,%rdx
    90b6:	48 31 f1             	xor    %rsi,%rcx
    90b9:	48 01 c6             	add    %rax,%rsi
    90bc:	48 c1 c0 0d          	rol    $0xd,%rax
    90c0:	48 01 ca             	add    %rcx,%rdx
    90c3:	48 c1 c1 10          	rol    $0x10,%rcx
    90c7:	48 31 f0             	xor    %rsi,%rax
    90ca:	48 31 d1             	xor    %rdx,%rcx
    90cd:	48 c1 c1 15          	rol    $0x15,%rcx
    90d1:	48 01 c2             	add    %rax,%rdx
    90d4:	48 c1 c0 11          	rol    $0x11,%rax
    90d8:	48 31 d0             	xor    %rdx,%rax
    90db:	48 c1 c2 20          	rol    $0x20,%rdx
    90df:	48 31 d0             	xor    %rdx,%rax
    90e2:	48 31 c8             	xor    %rcx,%rax
    90e5:	48 83 c4 68          	add    $0x68,%rsp
    90e9:	5b                   	pop    %rbx
    90ea:	41 5e                	pop    %r14
    90ec:	c3                   	retq   
    90ed:	0f 1f 00             	nopl   (%rax)

00000000000090f0 <_ZN9hashbrown3raw17RawTable$LT$T$GT$14reserve_rehash17h06c12c0414fa4986E>:
    90f0:	55                   	push   %rbp
    90f1:	41 57                	push   %r15
    90f3:	41 56                	push   %r14
    90f5:	41 55                	push   %r13
    90f7:	41 54                	push   %r12
    90f9:	53                   	push   %rbx
    90fa:	48 83 ec 68          	sub    $0x68,%rsp
    90fe:	49 89 fc             	mov    %rdi,%r12
    9101:	48 8b 5e 20          	mov    0x20(%rsi),%rbx
    9105:	48 ff c3             	inc    %rbx
    9108:	75 22                	jne    912c <_ZN9hashbrown3raw17RawTable$LT$T$GT$14reserve_rehash17h06c12c0414fa4986E+0x3c>
    910a:	bf 01 00 00 00       	mov    $0x1,%edi
    910f:	ff 15 63 0b 05 00    	callq  *0x50b63(%rip)        # 59c78 <_GLOBAL_OFFSET_TABLE_+0x4f8>
    9115:	49 89 44 24 08       	mov    %rax,0x8(%r12)
    911a:	49 89 54 24 10       	mov    %rdx,0x10(%r12)
    911f:	49 c7 04 24 01 00 00 	movq   $0x1,(%r12)
    9126:	00 
    9127:	e9 ce 02 00 00       	jmpq   93fa <_ZN9hashbrown3raw17RawTable$LT$T$GT$14reserve_rehash17h06c12c0414fa4986E+0x30a>
    912c:	49 89 d7             	mov    %rdx,%r15
    912f:	48 89 f5             	mov    %rsi,%rbp
    9132:	48 8b 3e             	mov    (%rsi),%rdi
    9135:	ff 15 e5 0a 05 00    	callq  *0x50ae5(%rip)        # 59c20 <_GLOBAL_OFFSET_TABLE_+0x4a0>
    913b:	48 89 c1             	mov    %rax,%rcx
    913e:	48 d1 e9             	shr    %rcx
    9141:	48 39 cb             	cmp    %rcx,%rbx
    9144:	48 89 6c 24 10       	mov    %rbp,0x10(%rsp)
    9149:	76 77                	jbe    91c2 <_ZN9hashbrown3raw17RawTable$LT$T$GT$14reserve_rehash17h06c12c0414fa4986E+0xd2>
    914b:	4c 89 fd             	mov    %r15,%rbp
    914e:	48 83 c0 01          	add    $0x1,%rax
    9152:	48 39 c3             	cmp    %rax,%rbx
    9155:	48 0f 47 c3          	cmova  %rbx,%rax
    9159:	48 85 c0             	test   %rax,%rax
    915c:	0f 84 aa 02 00 00    	je     940c <_ZN9hashbrown3raw17RawTable$LT$T$GT$14reserve_rehash17h06c12c0414fa4986E+0x31c>
    9162:	48 89 c7             	mov    %rax,%rdi
    9165:	ff 15 7d 0e 05 00    	callq  *0x50e7d(%rip)        # 59fe8 <_GLOBAL_OFFSET_TABLE_+0x868>
    916b:	48 85 c0             	test   %rax,%rax
    916e:	0f 84 9a 04 00 00    	je     960e <_ZN9hashbrown3raw17RawTable$LT$T$GT$14reserve_rehash17h06c12c0414fa4986E+0x51e>
    9174:	49 89 d5             	mov    %rdx,%r13
    9177:	b9 10 00 00 00       	mov    $0x10,%ecx
    917c:	45 31 ff             	xor    %r15d,%r15d
    917f:	48 89 d0             	mov    %rdx,%rax
    9182:	48 f7 e1             	mul    %rcx
    9185:	49 89 c6             	mov    %rax,%r14
    9188:	0f 91 c0             	setno  %al
    918b:	70 25                	jo     91b2 <_ZN9hashbrown3raw17RawTable$LT$T$GT$14reserve_rehash17h06c12c0414fa4986E+0xc2>
    918d:	41 88 c7             	mov    %al,%r15b
    9190:	49 c1 e7 03          	shl    $0x3,%r15
    9194:	49 8d 4d 10          	lea    0x10(%r13),%rcx
    9198:	4b 8d 04 2f          	lea    (%r15,%r13,1),%rax
    919c:	48 83 c0 0f          	add    $0xf,%rax
    91a0:	49 f7 df             	neg    %r15
    91a3:	49 21 c7             	and    %rax,%r15
    91a6:	49 29 cf             	sub    %rcx,%r15
    91a9:	49 01 cf             	add    %rcx,%r15
    91ac:	0f 83 6c 04 00 00    	jae    961e <_ZN9hashbrown3raw17RawTable$LT$T$GT$14reserve_rehash17h06c12c0414fa4986E+0x52e>
    91b2:	bf 01 00 00 00       	mov    $0x1,%edi
    91b7:	ff 15 bb 0a 05 00    	callq  *0x50abb(%rip)        # 59c78 <_GLOBAL_OFFSET_TABLE_+0x4f8>
    91bd:	e9 53 ff ff ff       	jmpq   9115 <_ZN9hashbrown3raw17RawTable$LT$T$GT$14reserve_rehash17h06c12c0414fa4986E+0x25>
    91c2:	48 8b 4d 00          	mov    0x0(%rbp),%rcx
    91c6:	48 83 c1 01          	add    $0x1,%rcx
    91ca:	31 c0                	xor    %eax,%eax
    91cc:	66 0f 6f 05 4c ae 03 	movdqa 0x3ae4c(%rip),%xmm0        # 44020 <_fini+0x808>
    91d3:	00 
    91d4:	31 f6                	xor    %esi,%esi
    91d6:	48 89 eb             	mov    %rbp,%rbx
    91d9:	40 f6 c6 01          	test   $0x1,%sil
    91dd:	75 33                	jne    9212 <_ZN9hashbrown3raw17RawTable$LT$T$GT$14reserve_rehash17h06c12c0414fa4986E+0x122>
    91df:	eb 5f                	jmp    9240 <_ZN9hashbrown3raw17RawTable$LT$T$GT$14reserve_rehash17h06c12c0414fa4986E+0x150>
    91e1:	66 2e 0f 1f 84 00 00 	nopw   %cs:0x0(%rax,%rax,1)
    91e8:	00 00 00 
    91eb:	0f 1f 44 00 00       	nopl   0x0(%rax,%rax,1)
    91f0:	48 8b 73 08          	mov    0x8(%rbx),%rsi
    91f4:	66 0f ef c9          	pxor   %xmm1,%xmm1
    91f8:	66 0f 64 0c 06       	pcmpgtb (%rsi,%rax,1),%xmm1
    91fd:	66 0f eb c8          	por    %xmm0,%xmm1
    9201:	66 0f 7f 0c 06       	movdqa %xmm1,(%rsi,%rax,1)
    9206:	40 b6 01             	mov    $0x1,%sil
    9209:	48 89 d0             	mov    %rdx,%rax
    920c:	40 f6 c6 01          	test   $0x1,%sil
    9210:	74 2e                	je     9240 <_ZN9hashbrown3raw17RawTable$LT$T$GT$14reserve_rehash17h06c12c0414fa4986E+0x150>
    9212:	48 8d 50 0f          	lea    0xf(%rax),%rdx
    9216:	48 83 c2 01          	add    $0x1,%rdx
    921a:	48 89 c6             	mov    %rax,%rsi
    921d:	48 83 c6 0f          	add    $0xf,%rsi
    9221:	48 0f 42 d1          	cmovb  %rcx,%rdx
    9225:	48 39 ce             	cmp    %rcx,%rsi
    9228:	48 0f 43 d1          	cmovae %rcx,%rdx
    922c:	48 83 c0 0f          	add    $0xf,%rax
    9230:	72 19                	jb     924b <_ZN9hashbrown3raw17RawTable$LT$T$GT$14reserve_rehash17h06c12c0414fa4986E+0x15b>
    9232:	48 39 c8             	cmp    %rcx,%rax
    9235:	72 b9                	jb     91f0 <_ZN9hashbrown3raw17RawTable$LT$T$GT$14reserve_rehash17h06c12c0414fa4986E+0x100>
    9237:	eb 12                	jmp    924b <_ZN9hashbrown3raw17RawTable$LT$T$GT$14reserve_rehash17h06c12c0414fa4986E+0x15b>
    9239:	0f 1f 80 00 00 00 00 	nopl   0x0(%rax)
    9240:	48 39 c8             	cmp    %rcx,%rax
    9243:	73 06                	jae    924b <_ZN9hashbrown3raw17RawTable$LT$T$GT$14reserve_rehash17h06c12c0414fa4986E+0x15b>
    9245:	48 8d 50 01          	lea    0x1(%rax),%rdx
    9249:	eb a5                	jmp    91f0 <_ZN9hashbrown3raw17RawTable$LT$T$GT$14reserve_rehash17h06c12c0414fa4986E+0x100>
    924b:	48 8b 13             	mov    (%rbx),%rdx
    924e:	48 8b 73 08          	mov    0x8(%rbx),%rsi
    9252:	48 83 c2 01          	add    $0x1,%rdx
    9256:	48 83 fa 0f          	cmp    $0xf,%rdx
    925a:	77 0c                	ja     9268 <_ZN9hashbrown3raw17RawTable$LT$T$GT$14reserve_rehash17h06c12c0414fa4986E+0x178>
    925c:	48 8d 7e 10          	lea    0x10(%rsi),%rdi
    9260:	ff 15 5a 0a 05 00    	callq  *0x50a5a(%rip)        # 59cc0 <memmove@GLIBC_2.2.5>
    9266:	eb 09                	jmp    9271 <_ZN9hashbrown3raw17RawTable$LT$T$GT$14reserve_rehash17h06c12c0414fa4986E+0x181>
    9268:	f3 0f 6f 06          	movdqu (%rsi),%xmm0
    926c:	f3 0f 7f 04 16       	movdqu %xmm0,(%rsi,%rdx,1)
    9271:	48 89 5c 24 60       	mov    %rbx,0x60(%rsp)
    9276:	4c 8b 33             	mov    (%rbx),%r14
    9279:	48 c7 c7 ff ff ff ff 	mov    $0xffffffffffffffff,%rdi
    9280:	49 ff c6             	inc    %r14
    9283:	0f 84 5b 01 00 00    	je     93e4 <_ZN9hashbrown3raw17RawTable$LT$T$GT$14reserve_rehash17h06c12c0414fa4986E+0x2f4>
    9289:	4c 89 64 24 08       	mov    %r12,0x8(%rsp)
    928e:	4d 8b 3f             	mov    (%r15),%r15
    9291:	45 31 ed             	xor    %r13d,%r13d
    9294:	e9 08 01 00 00       	jmpq   93a1 <_ZN9hashbrown3raw17RawTable$LT$T$GT$14reserve_rehash17h06c12c0414fa4986E+0x2b1>
    9299:	0f 1f 80 00 00 00 00 	nopl   0x0(%rax)
    92a0:	4d 89 ec             	mov    %r13,%r12
    92a3:	49 c1 e4 04          	shl    $0x4,%r12
    92a7:	4c 03 63 10          	add    0x10(%rbx),%r12
    92ab:	4c 89 ff             	mov    %r15,%rdi
    92ae:	4c 89 e6             	mov    %r12,%rsi
    92b1:	e8 2a fc ff ff       	callq  8ee0 <_ZN9hashbrown3map9make_hash17hf4b9648c489593b4E>
    92b6:	48 8b 33             	mov    (%rbx),%rsi
    92b9:	48 8b 53 08          	mov    0x8(%rbx),%rdx
    92bd:	48 89 c1             	mov    %rax,%rcx
    92c0:	31 ff                	xor    %edi,%edi
    92c2:	66 2e 0f 1f 84 00 00 	nopw   %cs:0x0(%rax,%rax,1)
    92c9:	00 00 00 
    92cc:	0f 1f 40 00          	nopl   0x0(%rax)
    92d0:	48 89 cd             	mov    %rcx,%rbp
    92d3:	48 21 f5             	and    %rsi,%rbp
    92d6:	f3 0f 6f 04 2a       	movdqu (%rdx,%rbp,1),%xmm0
    92db:	66 0f d7 d8          	pmovmskb %xmm0,%ebx
    92df:	48 8d 0c 2f          	lea    (%rdi,%rbp,1),%rcx
    92e3:	48 83 c1 10          	add    $0x10,%rcx
    92e7:	48 83 c7 10          	add    $0x10,%rdi
    92eb:	66 85 db             	test   %bx,%bx
    92ee:	74 e0                	je     92d0 <_ZN9hashbrown3raw17RawTable$LT$T$GT$14reserve_rehash17h06c12c0414fa4986E+0x1e0>
    92f0:	66 0f bc fb          	bsf    %bx,%di
    92f4:	0f b7 ff             	movzwl %di,%edi
    92f7:	48 01 fd             	add    %rdi,%rbp
    92fa:	48 21 f5             	and    %rsi,%rbp
    92fd:	80 3c 2a 00          	cmpb   $0x0,(%rdx,%rbp,1)
    9301:	79 68                	jns    936b <_ZN9hashbrown3raw17RawTable$LT$T$GT$14reserve_rehash17h06c12c0414fa4986E+0x27b>
    9303:	48 89 f7             	mov    %rsi,%rdi
    9306:	48 21 c7             	and    %rax,%rdi
    9309:	4c 89 eb             	mov    %r13,%rbx
    930c:	48 29 fb             	sub    %rdi,%rbx
    930f:	48 89 e9             	mov    %rbp,%rcx
    9312:	48 29 f9             	sub    %rdi,%rcx
    9315:	48 31 d9             	xor    %rbx,%rcx
    9318:	48 21 f1             	and    %rsi,%rcx
    931b:	48 83 f9 0f          	cmp    $0xf,%rcx
    931f:	76 5f                	jbe    9380 <_ZN9hashbrown3raw17RawTable$LT$T$GT$14reserve_rehash17h06c12c0414fa4986E+0x290>
    9321:	8a 0c 2a             	mov    (%rdx,%rbp,1),%cl
    9324:	48 c1 e8 39          	shr    $0x39,%rax
    9328:	48 8d 7d f0          	lea    -0x10(%rbp),%rdi
    932c:	48 21 f7             	and    %rsi,%rdi
    932f:	88 04 2a             	mov    %al,(%rdx,%rbp,1)
    9332:	88 44 17 10          	mov    %al,0x10(%rdi,%rdx,1)
    9336:	80 f9 ff             	cmp    $0xff,%cl
    9339:	48 8b 5c 24 10       	mov    0x10(%rsp),%rbx
    933e:	74 72                	je     93b2 <_ZN9hashbrown3raw17RawTable$LT$T$GT$14reserve_rehash17h06c12c0414fa4986E+0x2c2>
    9340:	48 8b 43 10          	mov    0x10(%rbx),%rax
    9344:	48 c1 e5 04          	shl    $0x4,%rbp
    9348:	0f 10 04 28          	movups (%rax,%rbp,1),%xmm0
    934c:	0f 29 44 24 20       	movaps %xmm0,0x20(%rsp)
    9351:	41 0f 10 04 24       	movups (%r12),%xmm0
    9356:	0f 11 04 28          	movups %xmm0,(%rax,%rbp,1)
    935a:	66 0f 6f 44 24 20    	movdqa 0x20(%rsp),%xmm0
    9360:	f3 41 0f 7f 04 24    	movdqu %xmm0,(%r12)
    9366:	e9 35 ff ff ff       	jmpq   92a0 <_ZN9hashbrown3raw17RawTable$LT$T$GT$14reserve_rehash17h06c12c0414fa4986E+0x1b0>
    936b:	66 0f 6f 02          	movdqa (%rdx),%xmm0
    936f:	66 0f d7 c8          	pmovmskb %xmm0,%ecx
    9373:	66 0f bc c9          	bsf    %cx,%cx
    9377:	0f b7 e9             	movzwl %cx,%ebp
    937a:	eb 87                	jmp    9303 <_ZN9hashbrown3raw17RawTable$LT$T$GT$14reserve_rehash17h06c12c0414fa4986E+0x213>
    937c:	0f 1f 40 00          	nopl   0x0(%rax)
    9380:	48 c1 e8 39          	shr    $0x39,%rax
    9384:	49 8d 4d f0          	lea    -0x10(%r13),%rcx
    9388:	48 21 ce             	and    %rcx,%rsi
    938b:	42 88 04 2a          	mov    %al,(%rdx,%r13,1)
    938f:	88 44 16 10          	mov    %al,0x10(%rsi,%rdx,1)
    9393:	48 8b 5c 24 10       	mov    0x10(%rsp),%rbx
    9398:	49 83 c5 01          	add    $0x1,%r13
    939c:	4d 39 f5             	cmp    %r14,%r13
    939f:	74 3b                	je     93dc <_ZN9hashbrown3raw17RawTable$LT$T$GT$14reserve_rehash17h06c12c0414fa4986E+0x2ec>
    93a1:	48 8b 43 08          	mov    0x8(%rbx),%rax
    93a5:	42 80 3c 28 80       	cmpb   $0x80,(%rax,%r13,1)
    93aa:	0f 84 f0 fe ff ff    	je     92a0 <_ZN9hashbrown3raw17RawTable$LT$T$GT$14reserve_rehash17h06c12c0414fa4986E+0x1b0>
    93b0:	eb e6                	jmp    9398 <_ZN9hashbrown3raw17RawTable$LT$T$GT$14reserve_rehash17h06c12c0414fa4986E+0x2a8>
    93b2:	49 8d 45 f0          	lea    -0x10(%r13),%rax
    93b6:	48 23 03             	and    (%rbx),%rax
    93b9:	48 8b 4b 08          	mov    0x8(%rbx),%rcx
    93bd:	42 c6 04 29 ff       	movb   $0xff,(%rcx,%r13,1)
    93c2:	c6 44 08 10 ff       	movb   $0xff,0x10(%rax,%rcx,1)
    93c7:	48 8b 43 10          	mov    0x10(%rbx),%rax
    93cb:	48 c1 e5 04          	shl    $0x4,%rbp
    93cf:	f3 41 0f 6f 04 24    	movdqu (%r12),%xmm0
    93d5:	f3 0f 7f 04 28       	movdqu %xmm0,(%rax,%rbp,1)
    93da:	eb bc                	jmp    9398 <_ZN9hashbrown3raw17RawTable$LT$T$GT$14reserve_rehash17h06c12c0414fa4986E+0x2a8>
    93dc:	48 8b 3b             	mov    (%rbx),%rdi
    93df:	4c 8b 64 24 08       	mov    0x8(%rsp),%r12
    93e4:	ff 15 36 08 05 00    	callq  *0x50836(%rip)        # 59c20 <_GLOBAL_OFFSET_TABLE_+0x4a0>
    93ea:	48 2b 43 20          	sub    0x20(%rbx),%rax
    93ee:	48 89 43 18          	mov    %rax,0x18(%rbx)
    93f2:	49 c7 04 24 00 00 00 	movq   $0x0,(%r12)
    93f9:	00 
    93fa:	4c 89 e0             	mov    %r12,%rax
    93fd:	48 83 c4 68          	add    $0x68,%rsp
    9401:	5b                   	pop    %rbx
    9402:	41 5c                	pop    %r12
    9404:	41 5d                	pop    %r13
    9406:	41 5e                	pop    %r14
    9408:	41 5f                	pop    %r15
    940a:	5d                   	pop    %rbp
    940b:	c3                   	retq   
    940c:	ff 15 5e 09 05 00    	callq  *0x5095e(%rip)        # 59d70 <_GLOBAL_OFFSET_TABLE_+0x5f0>
    9412:	48 89 c3             	mov    %rax,%rbx
    9415:	4c 89 64 24 08       	mov    %r12,0x8(%rsp)
    941a:	41 bf 08 00 00 00    	mov    $0x8,%r15d
    9420:	45 31 ed             	xor    %r13d,%r13d
    9423:	45 31 f6             	xor    %r14d,%r14d
    9426:	48 8b 4c 24 10       	mov    0x10(%rsp),%rcx
    942b:	48 8b 41 20          	mov    0x20(%rcx),%rax
    942f:	49 29 c6             	sub    %rax,%r14
    9432:	4c 89 6c 24 20       	mov    %r13,0x20(%rsp)
    9437:	48 89 5c 24 28       	mov    %rbx,0x28(%rsp)
    943c:	4c 89 7c 24 30       	mov    %r15,0x30(%rsp)
    9441:	4c 89 74 24 38       	mov    %r14,0x38(%rsp)
    9446:	48 89 44 24 50       	mov    %rax,0x50(%rsp)
    944b:	48 89 44 24 40       	mov    %rax,0x40(%rsp)
    9450:	4c 8b 79 10          	mov    0x10(%rcx),%r15
    9454:	48 8b 01             	mov    (%rcx),%rax
    9457:	4c 8b 71 08          	mov    0x8(%rcx),%r14
    945b:	4a 8d 44 30 01       	lea    0x1(%rax,%r14,1),%rax
    9460:	66 41 0f 6f 06       	movdqa (%r14),%xmm0
    9465:	66 44 0f d7 e0       	pmovmskb %xmm0,%r12d
    946a:	41 f7 d4             	not    %r12d
    946d:	49 83 c6 10          	add    $0x10,%r14
    9471:	48 8b 4d 00          	mov    0x0(%rbp),%rcx
    9475:	48 89 4c 24 18       	mov    %rcx,0x18(%rsp)
    947a:	48 89 44 24 58       	mov    %rax,0x58(%rsp)
    947f:	66 45 85 e4          	test   %r12w,%r12w
    9483:	75 33                	jne    94b8 <_ZN9hashbrown3raw17RawTable$LT$T$GT$14reserve_rehash17h06c12c0414fa4986E+0x3c8>
    9485:	66 2e 0f 1f 84 00 00 	nopw   %cs:0x0(%rax,%rax,1)
    948c:	00 00 00 
    948f:	90                   	nop
    9490:	49 39 c6             	cmp    %rax,%r14
    9493:	0f 83 d4 00 00 00    	jae    956d <_ZN9hashbrown3raw17RawTable$LT$T$GT$14reserve_rehash17h06c12c0414fa4986E+0x47d>
    9499:	66 41 0f 6f 06       	movdqa (%r14),%xmm0
    949e:	66 44 0f d7 e0       	pmovmskb %xmm0,%r12d
    94a3:	49 81 c7 00 01 00 00 	add    $0x100,%r15
    94aa:	49 83 c6 10          	add    $0x10,%r14
    94ae:	66 41 83 fc ff       	cmp    $0xffff,%r12w
    94b3:	74 db                	je     9490 <_ZN9hashbrown3raw17RawTable$LT$T$GT$14reserve_rehash17h06c12c0414fa4986E+0x3a0>
    94b5:	41 f7 d4             	not    %r12d
    94b8:	66 41 0f bc c4       	bsf    %r12w,%ax
    94bd:	0f b7 e8             	movzwl %ax,%ebp
    94c0:	48 c1 e5 04          	shl    $0x4,%rbp
    94c4:	4c 01 fd             	add    %r15,%rbp
    94c7:	48 8b 7c 24 18       	mov    0x18(%rsp),%rdi
    94cc:	48 89 ee             	mov    %rbp,%rsi
    94cf:	e8 0c fa ff ff       	callq  8ee0 <_ZN9hashbrown3map9make_hash17hf4b9648c489593b4E>
    94d4:	41 8d 4c 24 ff       	lea    -0x1(%r12),%ecx
    94d9:	44 21 e1             	and    %r12d,%ecx
    94dc:	41 89 cc             	mov    %ecx,%r12d
    94df:	48 89 c6             	mov    %rax,%rsi
    94e2:	31 d2                	xor    %edx,%edx
    94e4:	66 2e 0f 1f 84 00 00 	nopw   %cs:0x0(%rax,%rax,1)
    94eb:	00 00 00 
    94ee:	66 90                	xchg   %ax,%ax
    94f0:	48 89 f1             	mov    %rsi,%rcx
    94f3:	4c 21 e9             	and    %r13,%rcx
    94f6:	f3 0f 6f 04 0b       	movdqu (%rbx,%rcx,1),%xmm0
    94fb:	66 0f d7 f8          	pmovmskb %xmm0,%edi
    94ff:	48 8d 34 0a          	lea    (%rdx,%rcx,1),%rsi
    9503:	48 83 c6 10          	add    $0x10,%rsi
    9507:	48 83 c2 10          	add    $0x10,%rdx
    950b:	66 85 ff             	test   %di,%di
    950e:	74 e0                	je     94f0 <_ZN9hashbrown3raw17RawTable$LT$T$GT$14reserve_rehash17h06c12c0414fa4986E+0x400>
    9510:	66 0f bc d7          	bsf    %di,%dx
    9514:	0f b7 d2             	movzwl %dx,%edx
    9517:	48 01 d1             	add    %rdx,%rcx
    951a:	4c 21 e9             	and    %r13,%rcx
    951d:	80 3c 0b 00          	cmpb   $0x0,(%rbx,%rcx,1)
    9521:	79 39                	jns    955c <_ZN9hashbrown3raw17RawTable$LT$T$GT$14reserve_rehash17h06c12c0414fa4986E+0x46c>
    9523:	48 c1 e8 39          	shr    $0x39,%rax
    9527:	48 8d 51 f0          	lea    -0x10(%rcx),%rdx
    952b:	4c 21 ea             	and    %r13,%rdx
    952e:	88 04 0b             	mov    %al,(%rbx,%rcx,1)
    9531:	88 44 1a 10          	mov    %al,0x10(%rdx,%rbx,1)
    9535:	48 8b 44 24 30       	mov    0x30(%rsp),%rax
    953a:	48 c1 e1 04          	shl    $0x4,%rcx
    953e:	f3 0f 6f 45 00       	movdqu 0x0(%rbp),%xmm0
    9543:	f3 0f 7f 04 08       	movdqu %xmm0,(%rax,%rcx,1)
    9548:	48 8b 44 24 58       	mov    0x58(%rsp),%rax
    954d:	66 45 85 e4          	test   %r12w,%r12w
    9551:	0f 85 61 ff ff ff    	jne    94b8 <_ZN9hashbrown3raw17RawTable$LT$T$GT$14reserve_rehash17h06c12c0414fa4986E+0x3c8>
    9557:	e9 34 ff ff ff       	jmpq   9490 <_ZN9hashbrown3raw17RawTable$LT$T$GT$14reserve_rehash17h06c12c0414fa4986E+0x3a0>
    955c:	66 0f 6f 03          	movdqa (%rbx),%xmm0
    9560:	66 0f d7 c8          	pmovmskb %xmm0,%ecx
    9564:	66 0f bc c9          	bsf    %cx,%cx
    9568:	0f b7 c9             	movzwl %cx,%ecx
    956b:	eb b6                	jmp    9523 <_ZN9hashbrown3raw17RawTable$LT$T$GT$14reserve_rehash17h06c12c0414fa4986E+0x433>
    956d:	48 8b 4c 24 10       	mov    0x10(%rsp),%rcx
    9572:	f3 0f 6f 01          	movdqu (%rcx),%xmm0
    9576:	0f 10 49 10          	movups 0x10(%rcx),%xmm1
    957a:	0f 10 54 24 20       	movups 0x20(%rsp),%xmm2
    957f:	0f 10 5c 24 30       	movups 0x30(%rsp),%xmm3
    9584:	0f 11 59 10          	movups %xmm3,0x10(%rcx)
    9588:	0f 11 11             	movups %xmm2,(%rcx)
    958b:	f3 0f 7f 44 24 20    	movdqu %xmm0,0x20(%rsp)
    9591:	0f 11 4c 24 30       	movups %xmm1,0x30(%rsp)
    9596:	48 8b 41 20          	mov    0x20(%rcx),%rax
    959a:	48 8b 54 24 50       	mov    0x50(%rsp),%rdx
    959f:	48 89 51 20          	mov    %rdx,0x20(%rcx)
    95a3:	48 89 44 24 40       	mov    %rax,0x40(%rsp)
    95a8:	4c 8b 64 24 08       	mov    0x8(%rsp),%r12
    95ad:	49 c7 04 24 00 00 00 	movq   $0x0,(%r12)
    95b4:	00 
    95b5:	66 48 0f 7e c1       	movq   %xmm0,%rcx
    95ba:	48 85 c9             	test   %rcx,%rcx
    95bd:	0f 84 37 fe ff ff    	je     93fa <_ZN9hashbrown3raw17RawTable$LT$T$GT$14reserve_rehash17h06c12c0414fa4986E+0x30a>
    95c3:	66 0f 70 c0 4e       	pshufd $0x4e,%xmm0,%xmm0
    95c8:	66 48 0f 7e c7       	movq   %xmm0,%rdi
    95cd:	48 8d 41 01          	lea    0x1(%rcx),%rax
    95d1:	ba 10 00 00 00       	mov    $0x10,%edx
    95d6:	31 f6                	xor    %esi,%esi
    95d8:	48 f7 e2             	mul    %rdx
    95db:	0f 91 c2             	setno  %dl
    95de:	70 21                	jo     9601 <_ZN9hashbrown3raw17RawTable$LT$T$GT$14reserve_rehash17h06c12c0414fa4986E+0x511>
    95e0:	40 88 d6             	mov    %dl,%sil
    95e3:	48 c1 e6 03          	shl    $0x3,%rsi
    95e7:	48 8d 14 31          	lea    (%rcx,%rsi,1),%rdx
    95eb:	48 83 c2 10          	add    $0x10,%rdx
    95ef:	48 83 c1 11          	add    $0x11,%rcx
    95f3:	48 f7 de             	neg    %rsi
    95f6:	48 21 d6             	and    %rdx,%rsi
    95f9:	48 29 ce             	sub    %rcx,%rsi
    95fc:	48 01 ce             	add    %rcx,%rsi
    95ff:	73 7b                	jae    967c <_ZN9hashbrown3raw17RawTable$LT$T$GT$14reserve_rehash17h06c12c0414fa4986E+0x58c>
    9601:	31 d2                	xor    %edx,%edx
    9603:	ff 15 67 04 05 00    	callq  *0x50467(%rip)        # 59a70 <_GLOBAL_OFFSET_TABLE_+0x2f0>
    9609:	e9 ec fd ff ff       	jmpq   93fa <_ZN9hashbrown3raw17RawTable$LT$T$GT$14reserve_rehash17h06c12c0414fa4986E+0x30a>
    960e:	bf 01 00 00 00       	mov    $0x1,%edi
    9613:	ff 15 5f 06 05 00    	callq  *0x5065f(%rip)        # 59c78 <_GLOBAL_OFFSET_TABLE_+0x4f8>
    9619:	e9 f7 fa ff ff       	jmpq   9115 <_ZN9hashbrown3raw17RawTable$LT$T$GT$14reserve_rehash17h06c12c0414fa4986E+0x25>
    961e:	4d 01 fe             	add    %r15,%r14
    9621:	0f 82 8b fb ff ff    	jb     91b2 <_ZN9hashbrown3raw17RawTable$LT$T$GT$14reserve_rehash17h06c12c0414fa4986E+0xc2>
    9627:	49 83 fe f0          	cmp    $0xfffffffffffffff0,%r14
    962b:	0f 87 81 fb ff ff    	ja     91b2 <_ZN9hashbrown3raw17RawTable$LT$T$GT$14reserve_rehash17h06c12c0414fa4986E+0xc2>
    9631:	48 89 4c 24 18       	mov    %rcx,0x18(%rsp)
    9636:	be 10 00 00 00       	mov    $0x10,%esi
    963b:	4c 89 f7             	mov    %r14,%rdi
    963e:	ff 15 64 06 05 00    	callq  *0x50664(%rip)        # 59ca8 <_GLOBAL_OFFSET_TABLE_+0x528>
    9644:	48 85 c0             	test   %rax,%rax
    9647:	74 58                	je     96a1 <_ZN9hashbrown3raw17RawTable$LT$T$GT$14reserve_rehash17h06c12c0414fa4986E+0x5b1>
    9649:	48 89 c3             	mov    %rax,%rbx
    964c:	49 83 c5 ff          	add    $0xffffffffffffffff,%r13
    9650:	4c 89 ef             	mov    %r13,%rdi
    9653:	ff 15 c7 05 05 00    	callq  *0x505c7(%rip)        # 59c20 <_GLOBAL_OFFSET_TABLE_+0x4a0>
    9659:	49 89 c6             	mov    %rax,%r14
    965c:	4c 89 64 24 08       	mov    %r12,0x8(%rsp)
    9661:	49 01 df             	add    %rbx,%r15
    9664:	48 89 df             	mov    %rbx,%rdi
    9667:	be ff 00 00 00       	mov    $0xff,%esi
    966c:	48 8b 54 24 18       	mov    0x18(%rsp),%rdx
    9671:	ff 15 d9 01 05 00    	callq  *0x501d9(%rip)        # 59850 <memset@GLIBC_2.2.5>
    9677:	e9 aa fd ff ff       	jmpq   9426 <_ZN9hashbrown3raw17RawTable$LT$T$GT$14reserve_rehash17h06c12c0414fa4986E+0x336>
    967c:	48 8d 0c 06          	lea    (%rsi,%rax,1),%rcx
    9680:	31 db                	xor    %ebx,%ebx
    9682:	48 83 f9 f1          	cmp    $0xfffffffffffffff1,%rcx
    9686:	0f 92 c3             	setb   %bl
    9689:	48 c1 e3 04          	shl    $0x4,%rbx
    968d:	31 d2                	xor    %edx,%edx
    968f:	48 01 c6             	add    %rax,%rsi
    9692:	48 0f 43 d3          	cmovae %rbx,%rdx
    9696:	ff 15 d4 03 05 00    	callq  *0x503d4(%rip)        # 59a70 <_GLOBAL_OFFSET_TABLE_+0x2f0>
    969c:	e9 59 fd ff ff       	jmpq   93fa <_ZN9hashbrown3raw17RawTable$LT$T$GT$14reserve_rehash17h06c12c0414fa4986E+0x30a>
    96a1:	ba 10 00 00 00       	mov    $0x10,%edx
    96a6:	bf 01 00 00 00       	mov    $0x1,%edi
    96ab:	4c 89 f6             	mov    %r14,%rsi
    96ae:	ff 15 b4 05 05 00    	callq  *0x505b4(%rip)        # 59c68 <_GLOBAL_OFFSET_TABLE_+0x4e8>
    96b4:	e9 5c fa ff ff       	jmpq   9115 <_ZN9hashbrown3raw17RawTable$LT$T$GT$14reserve_rehash17h06c12c0414fa4986E+0x25>
    96b9:	eb 14                	jmp    96cf <_ZN9hashbrown3raw17RawTable$LT$T$GT$14reserve_rehash17h06c12c0414fa4986E+0x5df>
    96bb:	48 89 c3             	mov    %rax,%rbx
    96be:	eb 1c                	jmp    96dc <_ZN9hashbrown3raw17RawTable$LT$T$GT$14reserve_rehash17h06c12c0414fa4986E+0x5ec>
    96c0:	48 89 c3             	mov    %rax,%rbx
    96c3:	48 8d 7c 24 20       	lea    0x20(%rsp),%rdi
    96c8:	e8 83 e3 ff ff       	callq  7a50 <_ZN4core3ptr13drop_in_place17h1848689ff7a60d78E>
    96cd:	eb 0d                	jmp    96dc <_ZN9hashbrown3raw17RawTable$LT$T$GT$14reserve_rehash17h06c12c0414fa4986E+0x5ec>
    96cf:	48 89 c3             	mov    %rax,%rbx
    96d2:	48 8d 7c 24 60       	lea    0x60(%rsp),%rdi
    96d7:	e8 d4 e6 ff ff       	callq  7db0 <_ZN4core3ptr13drop_in_place17h4350a6e561f16ebdE>
    96dc:	48 89 df             	mov    %rbx,%rdi
    96df:	e8 dc d9 ff ff       	callq  70c0 <_Unwind_Resume@plt>
    96e4:	0f 0b                	ud2    
    96e6:	66 2e 0f 1f 84 00 00 	nopw   %cs:0x0(%rax,%rax,1)
    96ed:	00 00 00 

00000000000096f0 <_ZN9hashbrown3raw17RawTable$LT$T$GT$14reserve_rehash17h846ba36b5c0ea7e1E>:
    96f0:	55                   	push   %rbp
    96f1:	41 57                	push   %r15
    96f3:	41 56                	push   %r14
    96f5:	41 55                	push   %r13
    96f7:	41 54                	push   %r12
    96f9:	53                   	push   %rbx
    96fa:	48 83 ec 48          	sub    $0x48,%rsp
    96fe:	49 89 fe             	mov    %rdi,%r14
    9701:	48 8b 5e 20          	mov    0x20(%rsi),%rbx
    9705:	48 ff c3             	inc    %rbx
    9708:	75 15                	jne    971f <_ZN9hashbrown3raw17RawTable$LT$T$GT$14reserve_rehash17h846ba36b5c0ea7e1E+0x2f>
    970a:	bf 01 00 00 00       	mov    $0x1,%edi
    970f:	ff 15 63 05 05 00    	callq  *0x50563(%rip)        # 59c78 <_GLOBAL_OFFSET_TABLE_+0x4f8>
    9715:	49 89 46 08          	mov    %rax,0x8(%r14)
    9719:	49 89 56 10          	mov    %rdx,0x10(%r14)
    971d:	eb 52                	jmp    9771 <_ZN9hashbrown3raw17RawTable$LT$T$GT$14reserve_rehash17h846ba36b5c0ea7e1E+0x81>
    971f:	49 89 f4             	mov    %rsi,%r12
    9722:	48 8b 3e             	mov    (%rsi),%rdi
    9725:	ff 15 f5 04 05 00    	callq  *0x504f5(%rip)        # 59c20 <_GLOBAL_OFFSET_TABLE_+0x4a0>
    972b:	48 89 c1             	mov    %rax,%rcx
    972e:	48 d1 e9             	shr    %rcx
    9731:	48 39 cb             	cmp    %rcx,%rbx
    9734:	76 47                	jbe    977d <_ZN9hashbrown3raw17RawTable$LT$T$GT$14reserve_rehash17h846ba36b5c0ea7e1E+0x8d>
    9736:	48 83 c0 01          	add    $0x1,%rax
    973a:	48 39 c3             	cmp    %rax,%rbx
    973d:	48 0f 47 c3          	cmova  %rbx,%rax
    9741:	48 8d 7c 24 18       	lea    0x18(%rsp),%rdi
    9746:	48 89 c6             	mov    %rax,%rsi
    9749:	ba 01 00 00 00       	mov    $0x1,%edx
    974e:	e8 9d 0a 00 00       	callq  a1f0 <_ZN9hashbrown3raw17RawTable$LT$T$GT$17try_with_capacity17hbfa960bead41bfc6E>
    9753:	4c 8b 5c 24 20       	mov    0x20(%rsp),%r11
    9758:	48 8b 4c 24 28       	mov    0x28(%rsp),%rcx
    975d:	48 83 7c 24 18 01    	cmpq   $0x1,0x18(%rsp)
    9763:	0f 85 b8 00 00 00    	jne    9821 <_ZN9hashbrown3raw17RawTable$LT$T$GT$14reserve_rehash17h846ba36b5c0ea7e1E+0x131>
    9769:	4d 89 5e 08          	mov    %r11,0x8(%r14)
    976d:	49 89 4e 10          	mov    %rcx,0x10(%r14)
    9771:	49 c7 06 01 00 00 00 	movq   $0x1,(%r14)
    9778:	e9 1b 04 00 00       	jmpq   9b98 <_ZN9hashbrown3raw17RawTable$LT$T$GT$14reserve_rehash17h846ba36b5c0ea7e1E+0x4a8>
    977d:	49 8b 0c 24          	mov    (%r12),%rcx
    9781:	48 83 c1 01          	add    $0x1,%rcx
    9785:	31 c0                	xor    %eax,%eax
    9787:	66 0f 6f 05 91 a8 03 	movdqa 0x3a891(%rip),%xmm0        # 44020 <_fini+0x808>
    978e:	00 
    978f:	31 f6                	xor    %esi,%esi
    9791:	40 f6 c6 01          	test   $0x1,%sil
    9795:	75 2c                	jne    97c3 <_ZN9hashbrown3raw17RawTable$LT$T$GT$14reserve_rehash17h846ba36b5c0ea7e1E+0xd3>
    9797:	eb 57                	jmp    97f0 <_ZN9hashbrown3raw17RawTable$LT$T$GT$14reserve_rehash17h846ba36b5c0ea7e1E+0x100>
    9799:	0f 1f 80 00 00 00 00 	nopl   0x0(%rax)
    97a0:	49 8b 74 24 08       	mov    0x8(%r12),%rsi
    97a5:	66 0f ef c9          	pxor   %xmm1,%xmm1
    97a9:	66 0f 64 0c 06       	pcmpgtb (%rsi,%rax,1),%xmm1
    97ae:	66 0f eb c8          	por    %xmm0,%xmm1
    97b2:	66 0f 7f 0c 06       	movdqa %xmm1,(%rsi,%rax,1)
    97b7:	40 b6 01             	mov    $0x1,%sil
    97ba:	48 89 d0             	mov    %rdx,%rax
    97bd:	40 f6 c6 01          	test   $0x1,%sil
    97c1:	74 2d                	je     97f0 <_ZN9hashbrown3raw17RawTable$LT$T$GT$14reserve_rehash17h846ba36b5c0ea7e1E+0x100>
    97c3:	48 8d 50 0f          	lea    0xf(%rax),%rdx
    97c7:	48 83 c2 01          	add    $0x1,%rdx
    97cb:	48 89 c6             	mov    %rax,%rsi
    97ce:	48 83 c6 0f          	add    $0xf,%rsi
    97d2:	48 0f 42 d1          	cmovb  %rcx,%rdx
    97d6:	48 39 ce             	cmp    %rcx,%rsi
    97d9:	48 0f 43 d1          	cmovae %rcx,%rdx
    97dd:	48 83 c0 0f          	add    $0xf,%rax
    97e1:	72 18                	jb     97fb <_ZN9hashbrown3raw17RawTable$LT$T$GT$14reserve_rehash17h846ba36b5c0ea7e1E+0x10b>
    97e3:	48 39 c8             	cmp    %rcx,%rax
    97e6:	72 b8                	jb     97a0 <_ZN9hashbrown3raw17RawTable$LT$T$GT$14reserve_rehash17h846ba36b5c0ea7e1E+0xb0>
    97e8:	eb 11                	jmp    97fb <_ZN9hashbrown3raw17RawTable$LT$T$GT$14reserve_rehash17h846ba36b5c0ea7e1E+0x10b>
    97ea:	66 0f 1f 44 00 00    	nopw   0x0(%rax,%rax,1)
    97f0:	48 39 c8             	cmp    %rcx,%rax
    97f3:	73 06                	jae    97fb <_ZN9hashbrown3raw17RawTable$LT$T$GT$14reserve_rehash17h846ba36b5c0ea7e1E+0x10b>
    97f5:	48 8d 50 01          	lea    0x1(%rax),%rdx
    97f9:	eb a5                	jmp    97a0 <_ZN9hashbrown3raw17RawTable$LT$T$GT$14reserve_rehash17h846ba36b5c0ea7e1E+0xb0>
    97fb:	49 8b 14 24          	mov    (%r12),%rdx
    97ff:	49 8b 74 24 08       	mov    0x8(%r12),%rsi
    9804:	48 83 c2 01          	add    $0x1,%rdx
    9808:	48 83 fa 0f          	cmp    $0xf,%rdx
    980c:	0f 87 44 01 00 00    	ja     9956 <_ZN9hashbrown3raw17RawTable$LT$T$GT$14reserve_rehash17h846ba36b5c0ea7e1E+0x266>
    9812:	48 8d 7e 10          	lea    0x10(%rsi),%rdi
    9816:	ff 15 a4 04 05 00    	callq  *0x504a4(%rip)        # 59cc0 <memmove@GLIBC_2.2.5>
    981c:	e9 3e 01 00 00       	jmpq   995f <_ZN9hashbrown3raw17RawTable$LT$T$GT$14reserve_rehash17h846ba36b5c0ea7e1E+0x26f>
    9821:	48 8b 44 24 30       	mov    0x30(%rsp),%rax
    9826:	48 89 04 24          	mov    %rax,(%rsp)
    982a:	48 8b 44 24 38       	mov    0x38(%rsp),%rax
    982f:	48 89 44 24 08       	mov    %rax,0x8(%rsp)
    9834:	49 8b 44 24 20       	mov    0x20(%r12),%rax
    9839:	48 89 44 24 10       	mov    %rax,0x10(%rsp)
    983e:	66 48 0f 6e c9       	movq   %rcx,%xmm1
    9843:	66 49 0f 6e c3       	movq   %r11,%xmm0
    9848:	66 0f 6c c1          	punpcklqdq %xmm1,%xmm0
    984c:	49 8b 54 24 10       	mov    0x10(%r12),%rdx
    9851:	49 8b 04 24          	mov    (%r12),%rax
    9855:	49 8b 74 24 08       	mov    0x8(%r12),%rsi
    985a:	4c 8d 7c 30 01       	lea    0x1(%rax,%rsi,1),%r15
    985f:	66 0f 6f 0e          	movdqa (%rsi),%xmm1
    9863:	66 0f d7 f9          	pmovmskb %xmm1,%edi
    9867:	f7 d7                	not    %edi
    9869:	48 83 c6 10          	add    $0x10,%rsi
    986d:	66 85 ff             	test   %di,%di
    9870:	75 32                	jne    98a4 <_ZN9hashbrown3raw17RawTable$LT$T$GT$14reserve_rehash17h846ba36b5c0ea7e1E+0x1b4>
    9872:	66 2e 0f 1f 84 00 00 	nopw   %cs:0x0(%rax,%rax,1)
    9879:	00 00 00 
    987c:	0f 1f 40 00          	nopl   0x0(%rax)
    9880:	4c 39 fe             	cmp    %r15,%rsi
    9883:	0f 83 68 02 00 00    	jae    9af1 <_ZN9hashbrown3raw17RawTable$LT$T$GT$14reserve_rehash17h846ba36b5c0ea7e1E+0x401>
    9889:	66 0f 6f 0e          	movdqa (%rsi),%xmm1
    988d:	66 0f d7 f9          	pmovmskb %xmm1,%edi
    9891:	48 81 c2 00 01 00 00 	add    $0x100,%rdx
    9898:	48 83 c6 10          	add    $0x10,%rsi
    989c:	66 83 ff ff          	cmp    $0xffff,%di
    98a0:	74 de                	je     9880 <_ZN9hashbrown3raw17RawTable$LT$T$GT$14reserve_rehash17h846ba36b5c0ea7e1E+0x190>
    98a2:	f7 d7                	not    %edi
    98a4:	66 0f bc c7          	bsf    %di,%ax
    98a8:	0f b7 c0             	movzwl %ax,%eax
    98ab:	48 c1 e0 04          	shl    $0x4,%rax
    98af:	4c 8d 2c 02          	lea    (%rdx,%rax,1),%r13
    98b3:	4c 8b 0c 02          	mov    (%rdx,%rax,1),%r9
    98b7:	48 b8 95 0a 22 27 b7 	movabs $0x517cc1b727220a95,%rax
    98be:	c1 7c 51 
    98c1:	4c 0f af c8          	imul   %rax,%r9
    98c5:	4c 89 c8             	mov    %r9,%rax
    98c8:	31 db                	xor    %ebx,%ebx
    98ca:	66 0f 1f 44 00 00    	nopw   0x0(%rax,%rax,1)
    98d0:	48 89 c5             	mov    %rax,%rbp
    98d3:	4c 21 dd             	and    %r11,%rbp
    98d6:	f3 0f 6f 0c 29       	movdqu (%rcx,%rbp,1),%xmm1
    98db:	66 44 0f d7 d1       	pmovmskb %xmm1,%r10d
    98e0:	48 8d 04 2b          	lea    (%rbx,%rbp,1),%rax
    98e4:	48 83 c0 10          	add    $0x10,%rax
    98e8:	48 83 c3 10          	add    $0x10,%rbx
    98ec:	66 45 85 d2          	test   %r10w,%r10w
    98f0:	74 de                	je     98d0 <_ZN9hashbrown3raw17RawTable$LT$T$GT$14reserve_rehash17h846ba36b5c0ea7e1E+0x1e0>
    98f2:	44 8d 47 ff          	lea    -0x1(%rdi),%r8d
    98f6:	41 21 f8             	and    %edi,%r8d
    98f9:	66 41 0f bc c2       	bsf    %r10w,%ax
    98fe:	0f b7 c0             	movzwl %ax,%eax
    9901:	48 01 c5             	add    %rax,%rbp
    9904:	4c 21 dd             	and    %r11,%rbp
    9907:	80 3c 29 00          	cmpb   $0x0,(%rcx,%rbp,1)
    990b:	79 38                	jns    9945 <_ZN9hashbrown3raw17RawTable$LT$T$GT$14reserve_rehash17h846ba36b5c0ea7e1E+0x255>
    990d:	49 c1 e9 39          	shr    $0x39,%r9
    9911:	48 8d 45 f0          	lea    -0x10(%rbp),%rax
    9915:	4c 21 d8             	and    %r11,%rax
    9918:	44 88 0c 29          	mov    %r9b,(%rcx,%rbp,1)
    991c:	44 88 4c 08 10       	mov    %r9b,0x10(%rax,%rcx,1)
    9921:	48 c1 e5 04          	shl    $0x4,%rbp
    9925:	f3 41 0f 6f 4d 00    	movdqu 0x0(%r13),%xmm1
    992b:	48 8b 04 24          	mov    (%rsp),%rax
    992f:	f3 0f 7f 0c 28       	movdqu %xmm1,(%rax,%rbp,1)
    9934:	44 89 c7             	mov    %r8d,%edi
    9937:	66 85 ff             	test   %di,%di
    993a:	0f 85 64 ff ff ff    	jne    98a4 <_ZN9hashbrown3raw17RawTable$LT$T$GT$14reserve_rehash17h846ba36b5c0ea7e1E+0x1b4>
    9940:	e9 3b ff ff ff       	jmpq   9880 <_ZN9hashbrown3raw17RawTable$LT$T$GT$14reserve_rehash17h846ba36b5c0ea7e1E+0x190>
    9945:	66 0f 6f 09          	movdqa (%rcx),%xmm1
    9949:	66 0f d7 c1          	pmovmskb %xmm1,%eax
    994d:	66 0f bc c0          	bsf    %ax,%ax
    9951:	0f b7 e8             	movzwl %ax,%ebp
    9954:	eb b7                	jmp    990d <_ZN9hashbrown3raw17RawTable$LT$T$GT$14reserve_rehash17h846ba36b5c0ea7e1E+0x21d>
    9956:	f3 0f 6f 06          	movdqu (%rsi),%xmm0
    995a:	f3 0f 7f 04 16       	movdqu %xmm0,(%rsi,%rdx,1)
    995f:	4c 89 64 24 18       	mov    %r12,0x18(%rsp)
    9964:	4d 8b 14 24          	mov    (%r12),%r10
    9968:	48 c7 c7 ff ff ff ff 	mov    $0xffffffffffffffff,%rdi
    996f:	49 ff c2             	inc    %r10
    9972:	0f 84 5d 01 00 00    	je     9ad5 <_ZN9hashbrown3raw17RawTable$LT$T$GT$14reserve_rehash17h846ba36b5c0ea7e1E+0x3e5>
    9978:	49 b8 95 0a 22 27 b7 	movabs $0x517cc1b727220a95,%r8
    997f:	c1 7c 51 
    9982:	45 31 db             	xor    %r11d,%r11d
    9985:	e9 ff 00 00 00       	jmpq   9a89 <_ZN9hashbrown3raw17RawTable$LT$T$GT$14reserve_rehash17h846ba36b5c0ea7e1E+0x399>
    998a:	66 0f 1f 44 00 00    	nopw   0x0(%rax,%rax,1)
    9990:	49 8b 0c 24          	mov    (%r12),%rcx
    9994:	49 8b 44 24 10       	mov    0x10(%r12),%rax
    9999:	4c 89 fa             	mov    %r15,%rdx
    999c:	48 c1 e2 04          	shl    $0x4,%rdx
    99a0:	4c 8d 0c 10          	lea    (%rax,%rdx,1),%r9
    99a4:	4c 8b 2c 10          	mov    (%rax,%rdx,1),%r13
    99a8:	4d 0f af e8          	imul   %r8,%r13
    99ac:	4c 89 e8             	mov    %r13,%rax
    99af:	31 ed                	xor    %ebp,%ebp
    99b1:	66 2e 0f 1f 84 00 00 	nopw   %cs:0x0(%rax,%rax,1)
    99b8:	00 00 00 
    99bb:	0f 1f 44 00 00       	nopl   0x0(%rax,%rax,1)
    99c0:	48 89 c2             	mov    %rax,%rdx
    99c3:	48 21 ca             	and    %rcx,%rdx
    99c6:	f3 0f 6f 04 17       	movdqu (%rdi,%rdx,1),%xmm0
    99cb:	66 0f d7 f0          	pmovmskb %xmm0,%esi
    99cf:	48 8d 04 2a          	lea    (%rdx,%rbp,1),%rax
    99d3:	48 83 c0 10          	add    $0x10,%rax
    99d7:	48 83 c5 10          	add    $0x10,%rbp
    99db:	66 85 f6             	test   %si,%si
    99de:	74 e0                	je     99c0 <_ZN9hashbrown3raw17RawTable$LT$T$GT$14reserve_rehash17h846ba36b5c0ea7e1E+0x2d0>
    99e0:	66 0f bc c6          	bsf    %si,%ax
    99e4:	0f b7 c0             	movzwl %ax,%eax
    99e7:	48 01 c2             	add    %rax,%rdx
    99ea:	48 21 ca             	and    %rcx,%rdx
    99ed:	80 3c 17 00          	cmpb   $0x0,(%rdi,%rdx,1)
    99f1:	79 60                	jns    9a53 <_ZN9hashbrown3raw17RawTable$LT$T$GT$14reserve_rehash17h846ba36b5c0ea7e1E+0x363>
    99f3:	48 89 c8             	mov    %rcx,%rax
    99f6:	4c 21 e8             	and    %r13,%rax
    99f9:	4c 89 fe             	mov    %r15,%rsi
    99fc:	48 29 c6             	sub    %rax,%rsi
    99ff:	48 89 d3             	mov    %rdx,%rbx
    9a02:	48 29 c3             	sub    %rax,%rbx
    9a05:	48 31 f3             	xor    %rsi,%rbx
    9a08:	48 21 cb             	and    %rcx,%rbx
    9a0b:	48 83 fb 0f          	cmp    $0xf,%rbx
    9a0f:	76 5f                	jbe    9a70 <_ZN9hashbrown3raw17RawTable$LT$T$GT$14reserve_rehash17h846ba36b5c0ea7e1E+0x380>
    9a11:	8a 04 17             	mov    (%rdi,%rdx,1),%al
    9a14:	49 c1 ed 39          	shr    $0x39,%r13
    9a18:	48 8d 72 f0          	lea    -0x10(%rdx),%rsi
    9a1c:	48 21 ce             	and    %rcx,%rsi
    9a1f:	44 88 2c 17          	mov    %r13b,(%rdi,%rdx,1)
    9a23:	44 88 6c 3e 10       	mov    %r13b,0x10(%rsi,%rdi,1)
    9a28:	3c ff                	cmp    $0xff,%al
    9a2a:	74 76                	je     9aa2 <_ZN9hashbrown3raw17RawTable$LT$T$GT$14reserve_rehash17h846ba36b5c0ea7e1E+0x3b2>
    9a2c:	49 8b 44 24 10       	mov    0x10(%r12),%rax
    9a31:	48 c1 e2 04          	shl    $0x4,%rdx
    9a35:	f3 0f 6f 04 10       	movdqu (%rax,%rdx,1),%xmm0
    9a3a:	f3 41 0f 6f 09       	movdqu (%r9),%xmm1
    9a3f:	f3 0f 7f 0c 10       	movdqu %xmm1,(%rax,%rdx,1)
    9a44:	f3 41 0f 7f 01       	movdqu %xmm0,(%r9)
    9a49:	49 8b 7c 24 08       	mov    0x8(%r12),%rdi
    9a4e:	e9 3d ff ff ff       	jmpq   9990 <_ZN9hashbrown3raw17RawTable$LT$T$GT$14reserve_rehash17h846ba36b5c0ea7e1E+0x2a0>
    9a53:	66 0f 6f 07          	movdqa (%rdi),%xmm0
    9a57:	66 0f d7 c0          	pmovmskb %xmm0,%eax
    9a5b:	66 0f bc c0          	bsf    %ax,%ax
    9a5f:	0f b7 d0             	movzwl %ax,%edx
    9a62:	eb 8f                	jmp    99f3 <_ZN9hashbrown3raw17RawTable$LT$T$GT$14reserve_rehash17h846ba36b5c0ea7e1E+0x303>
    9a64:	66 2e 0f 1f 84 00 00 	nopw   %cs:0x0(%rax,%rax,1)
    9a6b:	00 00 00 
    9a6e:	66 90                	xchg   %ax,%ax
    9a70:	49 c1 ed 39          	shr    $0x39,%r13
    9a74:	49 8d 47 f0          	lea    -0x10(%r15),%rax
    9a78:	48 21 c1             	and    %rax,%rcx
    9a7b:	46 88 2c 3f          	mov    %r13b,(%rdi,%r15,1)
    9a7f:	44 88 6c 39 10       	mov    %r13b,0x10(%rcx,%rdi,1)
    9a84:	4d 39 d3             	cmp    %r10,%r11
    9a87:	74 48                	je     9ad1 <_ZN9hashbrown3raw17RawTable$LT$T$GT$14reserve_rehash17h846ba36b5c0ea7e1E+0x3e1>
    9a89:	4d 89 df             	mov    %r11,%r15
    9a8c:	49 83 c3 01          	add    $0x1,%r11
    9a90:	49 8b 7c 24 08       	mov    0x8(%r12),%rdi
    9a95:	42 80 3c 3f 80       	cmpb   $0x80,(%rdi,%r15,1)
    9a9a:	0f 84 f0 fe ff ff    	je     9990 <_ZN9hashbrown3raw17RawTable$LT$T$GT$14reserve_rehash17h846ba36b5c0ea7e1E+0x2a0>
    9aa0:	eb e2                	jmp    9a84 <_ZN9hashbrown3raw17RawTable$LT$T$GT$14reserve_rehash17h846ba36b5c0ea7e1E+0x394>
    9aa2:	49 8d 47 f0          	lea    -0x10(%r15),%rax
    9aa6:	49 23 04 24          	and    (%r12),%rax
    9aaa:	49 8b 4c 24 08       	mov    0x8(%r12),%rcx
    9aaf:	42 c6 04 39 ff       	movb   $0xff,(%rcx,%r15,1)
    9ab4:	c6 44 08 10 ff       	movb   $0xff,0x10(%rax,%rcx,1)
    9ab9:	49 8b 44 24 10       	mov    0x10(%r12),%rax
    9abe:	48 c1 e2 04          	shl    $0x4,%rdx
    9ac2:	f3 41 0f 6f 01       	movdqu (%r9),%xmm0
    9ac7:	f3 0f 7f 04 10       	movdqu %xmm0,(%rax,%rdx,1)
    9acc:	4d 39 d3             	cmp    %r10,%r11
    9acf:	75 b8                	jne    9a89 <_ZN9hashbrown3raw17RawTable$LT$T$GT$14reserve_rehash17h846ba36b5c0ea7e1E+0x399>
    9ad1:	49 8b 3c 24          	mov    (%r12),%rdi
    9ad5:	ff 15 45 01 05 00    	callq  *0x50145(%rip)        # 59c20 <_GLOBAL_OFFSET_TABLE_+0x4a0>
    9adb:	49 2b 44 24 20       	sub    0x20(%r12),%rax
    9ae0:	49 89 44 24 18       	mov    %rax,0x18(%r12)
    9ae5:	49 c7 06 00 00 00 00 	movq   $0x0,(%r14)
    9aec:	e9 a7 00 00 00       	jmpq   9b98 <_ZN9hashbrown3raw17RawTable$LT$T$GT$14reserve_rehash17h846ba36b5c0ea7e1E+0x4a8>
    9af1:	f3 0f 7e 14 24       	movq   (%rsp),%xmm2
    9af6:	48 8b 44 24 10       	mov    0x10(%rsp),%rax
    9afb:	48 8b 4c 24 08       	mov    0x8(%rsp),%rcx
    9b00:	48 29 c1             	sub    %rax,%rcx
    9b03:	66 48 0f 6e c9       	movq   %rcx,%xmm1
    9b08:	66 0f 6c d1          	punpcklqdq %xmm1,%xmm2
    9b0c:	f3 41 0f 6f 0c 24    	movdqu (%r12),%xmm1
    9b12:	f3 41 0f 7f 04 24    	movdqu %xmm0,(%r12)
    9b18:	f3 41 0f 7f 54 24 10 	movdqu %xmm2,0x10(%r12)
    9b1f:	49 89 44 24 20       	mov    %rax,0x20(%r12)
    9b24:	49 c7 06 00 00 00 00 	movq   $0x0,(%r14)
    9b2b:	66 48 0f 7e c9       	movq   %xmm1,%rcx
    9b30:	48 85 c9             	test   %rcx,%rcx
    9b33:	74 63                	je     9b98 <_ZN9hashbrown3raw17RawTable$LT$T$GT$14reserve_rehash17h846ba36b5c0ea7e1E+0x4a8>
    9b35:	48 8d 41 01          	lea    0x1(%rcx),%rax
    9b39:	ba 10 00 00 00       	mov    $0x10,%edx
    9b3e:	31 f6                	xor    %esi,%esi
    9b40:	48 f7 e2             	mul    %rdx
    9b43:	0f 91 c2             	setno  %dl
    9b46:	70 21                	jo     9b69 <_ZN9hashbrown3raw17RawTable$LT$T$GT$14reserve_rehash17h846ba36b5c0ea7e1E+0x479>
    9b48:	40 88 d6             	mov    %dl,%sil
    9b4b:	48 c1 e6 03          	shl    $0x3,%rsi
    9b4f:	48 8d 14 31          	lea    (%rcx,%rsi,1),%rdx
    9b53:	48 83 c2 10          	add    $0x10,%rdx
    9b57:	48 83 c1 11          	add    $0x11,%rcx
    9b5b:	48 f7 de             	neg    %rsi
    9b5e:	48 21 d6             	and    %rdx,%rsi
    9b61:	48 29 ce             	sub    %rcx,%rsi
    9b64:	48 01 ce             	add    %rcx,%rsi
    9b67:	73 04                	jae    9b6d <_ZN9hashbrown3raw17RawTable$LT$T$GT$14reserve_rehash17h846ba36b5c0ea7e1E+0x47d>
    9b69:	31 d2                	xor    %edx,%edx
    9b6b:	eb 1b                	jmp    9b88 <_ZN9hashbrown3raw17RawTable$LT$T$GT$14reserve_rehash17h846ba36b5c0ea7e1E+0x498>
    9b6d:	48 8d 0c 06          	lea    (%rsi,%rax,1),%rcx
    9b71:	31 ff                	xor    %edi,%edi
    9b73:	48 83 f9 f1          	cmp    $0xfffffffffffffff1,%rcx
    9b77:	40 0f 92 c7          	setb   %dil
    9b7b:	48 c1 e7 04          	shl    $0x4,%rdi
    9b7f:	31 d2                	xor    %edx,%edx
    9b81:	48 01 c6             	add    %rax,%rsi
    9b84:	48 0f 43 d7          	cmovae %rdi,%rdx
    9b88:	66 0f 70 c1 4e       	pshufd $0x4e,%xmm1,%xmm0
    9b8d:	66 48 0f 7e c7       	movq   %xmm0,%rdi
    9b92:	ff 15 d8 fe 04 00    	callq  *0x4fed8(%rip)        # 59a70 <_GLOBAL_OFFSET_TABLE_+0x2f0>
    9b98:	4c 89 f0             	mov    %r14,%rax
    9b9b:	48 83 c4 48          	add    $0x48,%rsp
    9b9f:	5b                   	pop    %rbx
    9ba0:	41 5c                	pop    %r12
    9ba2:	41 5d                	pop    %r13
    9ba4:	41 5e                	pop    %r14
    9ba6:	41 5f                	pop    %r15
    9ba8:	5d                   	pop    %rbp
    9ba9:	c3                   	retq   
    9baa:	48 89 c3             	mov    %rax,%rbx
    9bad:	48 8d 7c 24 18       	lea    0x18(%rsp),%rdi
    9bb2:	e8 f9 e1 ff ff       	callq  7db0 <_ZN4core3ptr13drop_in_place17h4350a6e561f16ebdE>
    9bb7:	48 89 df             	mov    %rbx,%rdi
    9bba:	e8 01 d5 ff ff       	callq  70c0 <_Unwind_Resume@plt>
    9bbf:	0f 0b                	ud2    
    9bc1:	66 2e 0f 1f 84 00 00 	nopw   %cs:0x0(%rax,%rax,1)
    9bc8:	00 00 00 
    9bcb:	0f 1f 44 00 00       	nopl   0x0(%rax,%rax,1)

0000000000009bd0 <_ZN9hashbrown3raw17RawTable$LT$T$GT$14reserve_rehash17hb290e1f3ec49d2b1E>:
    9bd0:	55                   	push   %rbp
    9bd1:	41 57                	push   %r15
    9bd3:	41 56                	push   %r14
    9bd5:	41 55                	push   %r13
    9bd7:	41 54                	push   %r12
    9bd9:	53                   	push   %rbx
    9bda:	48 83 ec 58          	sub    $0x58,%rsp
    9bde:	48 89 fd             	mov    %rdi,%rbp
    9be1:	48 8b 5e 20          	mov    0x20(%rsi),%rbx
    9be5:	48 ff c3             	inc    %rbx
    9be8:	75 10                	jne    9bfa <_ZN9hashbrown3raw17RawTable$LT$T$GT$14reserve_rehash17hb290e1f3ec49d2b1E+0x2a>
    9bea:	bf 01 00 00 00       	mov    $0x1,%edi
    9bef:	ff 15 83 00 05 00    	callq  *0x50083(%rip)        # 59c78 <_GLOBAL_OFFSET_TABLE_+0x4f8>
    9bf5:	e9 71 05 00 00       	jmpq   a16b <_ZN9hashbrown3raw17RawTable$LT$T$GT$14reserve_rehash17hb290e1f3ec49d2b1E+0x59b>
    9bfa:	49 89 f7             	mov    %rsi,%r15
    9bfd:	48 8b 3e             	mov    (%rsi),%rdi
    9c00:	ff 15 1a 00 05 00    	callq  *0x5001a(%rip)        # 59c20 <_GLOBAL_OFFSET_TABLE_+0x4a0>
    9c06:	48 89 c1             	mov    %rax,%rcx
    9c09:	48 d1 e9             	shr    %rcx
    9c0c:	48 39 cb             	cmp    %rcx,%rbx
    9c0f:	48 89 6c 24 08       	mov    %rbp,0x8(%rsp)
    9c14:	0f 86 be 00 00 00    	jbe    9cd8 <_ZN9hashbrown3raw17RawTable$LT$T$GT$14reserve_rehash17hb290e1f3ec49d2b1E+0x108>
    9c1a:	48 83 c0 01          	add    $0x1,%rax
    9c1e:	48 39 c3             	cmp    %rax,%rbx
    9c21:	48 0f 47 c3          	cmova  %rbx,%rax
    9c25:	48 85 c0             	test   %rax,%rax
    9c28:	0f 84 1a 03 00 00    	je     9f48 <_ZN9hashbrown3raw17RawTable$LT$T$GT$14reserve_rehash17hb290e1f3ec49d2b1E+0x378>
    9c2e:	48 89 c7             	mov    %rax,%rdi
    9c31:	ff 15 b1 03 05 00    	callq  *0x503b1(%rip)        # 59fe8 <_GLOBAL_OFFSET_TABLE_+0x868>
    9c37:	48 85 c0             	test   %rax,%rax
    9c3a:	0f 84 1b 05 00 00    	je     a15b <_ZN9hashbrown3raw17RawTable$LT$T$GT$14reserve_rehash17hb290e1f3ec49d2b1E+0x58b>
    9c40:	49 89 d4             	mov    %rdx,%r12
    9c43:	b9 18 00 00 00       	mov    $0x18,%ecx
    9c48:	31 ed                	xor    %ebp,%ebp
    9c4a:	48 89 d0             	mov    %rdx,%rax
    9c4d:	48 f7 e1             	mul    %rcx
    9c50:	49 89 c6             	mov    %rax,%r14
    9c53:	0f 91 c0             	setno  %al
    9c56:	0f 80 f2 04 00 00    	jo     a14e <_ZN9hashbrown3raw17RawTable$LT$T$GT$14reserve_rehash17hb290e1f3ec49d2b1E+0x57e>
    9c5c:	40 88 c5             	mov    %al,%bpl
    9c5f:	48 c1 e5 03          	shl    $0x3,%rbp
    9c63:	4d 8d 6c 24 10       	lea    0x10(%r12),%r13
    9c68:	49 8d 04 2c          	lea    (%r12,%rbp,1),%rax
    9c6c:	48 83 c0 0f          	add    $0xf,%rax
    9c70:	48 f7 dd             	neg    %rbp
    9c73:	48 21 c5             	and    %rax,%rbp
    9c76:	4c 29 ed             	sub    %r13,%rbp
    9c79:	4c 01 ed             	add    %r13,%rbp
    9c7c:	0f 82 cc 04 00 00    	jb     a14e <_ZN9hashbrown3raw17RawTable$LT$T$GT$14reserve_rehash17hb290e1f3ec49d2b1E+0x57e>
    9c82:	49 01 ee             	add    %rbp,%r14
    9c85:	0f 82 c3 04 00 00    	jb     a14e <_ZN9hashbrown3raw17RawTable$LT$T$GT$14reserve_rehash17hb290e1f3ec49d2b1E+0x57e>
    9c8b:	49 83 fe f0          	cmp    $0xfffffffffffffff0,%r14
    9c8f:	0f 87 b9 04 00 00    	ja     a14e <_ZN9hashbrown3raw17RawTable$LT$T$GT$14reserve_rehash17hb290e1f3ec49d2b1E+0x57e>
    9c95:	be 10 00 00 00       	mov    $0x10,%esi
    9c9a:	4c 89 f7             	mov    %r14,%rdi
    9c9d:	ff 15 05 00 05 00    	callq  *0x50005(%rip)        # 59ca8 <_GLOBAL_OFFSET_TABLE_+0x528>
    9ca3:	48 85 c0             	test   %rax,%rax
    9ca6:	0f 84 03 05 00 00    	je     a1af <_ZN9hashbrown3raw17RawTable$LT$T$GT$14reserve_rehash17hb290e1f3ec49d2b1E+0x5df>
    9cac:	48 89 c3             	mov    %rax,%rbx
    9caf:	49 83 c4 ff          	add    $0xffffffffffffffff,%r12
    9cb3:	4c 89 e7             	mov    %r12,%rdi
    9cb6:	ff 15 64 ff 04 00    	callq  *0x4ff64(%rip)        # 59c20 <_GLOBAL_OFFSET_TABLE_+0x4a0>
    9cbc:	49 89 c6             	mov    %rax,%r14
    9cbf:	48 01 dd             	add    %rbx,%rbp
    9cc2:	48 89 df             	mov    %rbx,%rdi
    9cc5:	be ff 00 00 00       	mov    $0xff,%esi
    9cca:	4c 89 ea             	mov    %r13,%rdx
    9ccd:	ff 15 7d fb 04 00    	callq  *0x4fb7d(%rip)        # 59850 <memset@GLIBC_2.2.5>
    9cd3:	e9 84 02 00 00       	jmpq   9f5c <_ZN9hashbrown3raw17RawTable$LT$T$GT$14reserve_rehash17hb290e1f3ec49d2b1E+0x38c>
    9cd8:	49 8b 0f             	mov    (%r15),%rcx
    9cdb:	48 83 c1 01          	add    $0x1,%rcx
    9cdf:	31 c0                	xor    %eax,%eax
    9ce1:	66 0f 6f 05 37 a3 03 	movdqa 0x3a337(%rip),%xmm0        # 44020 <_fini+0x808>
    9ce8:	00 
    9ce9:	31 f6                	xor    %esi,%esi
    9ceb:	40 f6 c6 01          	test   $0x1,%sil
    9cef:	75 3a                	jne    9d2b <_ZN9hashbrown3raw17RawTable$LT$T$GT$14reserve_rehash17hb290e1f3ec49d2b1E+0x15b>
    9cf1:	66 2e 0f 1f 84 00 00 	nopw   %cs:0x0(%rax,%rax,1)
    9cf8:	00 00 00 
    9cfb:	0f 1f 44 00 00       	nopl   0x0(%rax,%rax,1)
    9d00:	48 39 c8             	cmp    %rcx,%rax
    9d03:	73 4b                	jae    9d50 <_ZN9hashbrown3raw17RawTable$LT$T$GT$14reserve_rehash17hb290e1f3ec49d2b1E+0x180>
    9d05:	48 8d 50 01          	lea    0x1(%rax),%rdx
    9d09:	49 8b 77 08          	mov    0x8(%r15),%rsi
    9d0d:	66 0f ef c9          	pxor   %xmm1,%xmm1
    9d11:	66 0f 64 0c 06       	pcmpgtb (%rsi,%rax,1),%xmm1
    9d16:	66 0f eb c8          	por    %xmm0,%xmm1
    9d1a:	66 0f 7f 0c 06       	movdqa %xmm1,(%rsi,%rax,1)
    9d1f:	40 b6 01             	mov    $0x1,%sil
    9d22:	48 89 d0             	mov    %rdx,%rax
    9d25:	40 f6 c6 01          	test   $0x1,%sil
    9d29:	74 d5                	je     9d00 <_ZN9hashbrown3raw17RawTable$LT$T$GT$14reserve_rehash17hb290e1f3ec49d2b1E+0x130>
    9d2b:	48 8d 50 0f          	lea    0xf(%rax),%rdx
    9d2f:	48 83 c2 01          	add    $0x1,%rdx
    9d33:	48 89 c6             	mov    %rax,%rsi
    9d36:	48 83 c6 0f          	add    $0xf,%rsi
    9d3a:	48 0f 42 d1          	cmovb  %rcx,%rdx
    9d3e:	48 39 ce             	cmp    %rcx,%rsi
    9d41:	48 0f 43 d1          	cmovae %rcx,%rdx
    9d45:	48 83 c0 0f          	add    $0xf,%rax
    9d49:	72 05                	jb     9d50 <_ZN9hashbrown3raw17RawTable$LT$T$GT$14reserve_rehash17hb290e1f3ec49d2b1E+0x180>
    9d4b:	48 39 c8             	cmp    %rcx,%rax
    9d4e:	72 b9                	jb     9d09 <_ZN9hashbrown3raw17RawTable$LT$T$GT$14reserve_rehash17hb290e1f3ec49d2b1E+0x139>
    9d50:	49 8b 17             	mov    (%r15),%rdx
    9d53:	49 8b 77 08          	mov    0x8(%r15),%rsi
    9d57:	48 83 c2 01          	add    $0x1,%rdx
    9d5b:	48 83 fa 0f          	cmp    $0xf,%rdx
    9d5f:	77 0c                	ja     9d6d <_ZN9hashbrown3raw17RawTable$LT$T$GT$14reserve_rehash17hb290e1f3ec49d2b1E+0x19d>
    9d61:	48 8d 7e 10          	lea    0x10(%rsi),%rdi
    9d65:	ff 15 55 ff 04 00    	callq  *0x4ff55(%rip)        # 59cc0 <memmove@GLIBC_2.2.5>
    9d6b:	eb 09                	jmp    9d76 <_ZN9hashbrown3raw17RawTable$LT$T$GT$14reserve_rehash17hb290e1f3ec49d2b1E+0x1a6>
    9d6d:	f3 0f 6f 06          	movdqu (%rsi),%xmm0
    9d71:	f3 0f 7f 04 16       	movdqu %xmm0,(%rsi,%rdx,1)
    9d76:	4c 89 3c 24          	mov    %r15,(%rsp)
    9d7a:	4d 8b 2f             	mov    (%r15),%r13
    9d7d:	48 c7 c7 ff ff ff ff 	mov    $0xffffffffffffffff,%rdi
    9d84:	49 ff c5             	inc    %r13
    9d87:	0f 84 9b 01 00 00    	je     9f28 <_ZN9hashbrown3raw17RawTable$LT$T$GT$14reserve_rehash17hb290e1f3ec49d2b1E+0x358>
    9d8d:	45 31 e4             	xor    %r12d,%r12d
    9d90:	48 8d 5c 24 10       	lea    0x10(%rsp),%rbx
    9d95:	e9 46 01 00 00       	jmpq   9ee0 <_ZN9hashbrown3raw17RawTable$LT$T$GT$14reserve_rehash17hb290e1f3ec49d2b1E+0x310>
    9d9a:	66 0f 1f 44 00 00    	nopw   0x0(%rax,%rax,1)
    9da0:	4f 8d 34 64          	lea    (%r12,%r12,2),%r14
    9da4:	49 c1 e6 03          	shl    $0x3,%r14
    9da8:	4d 03 77 10          	add    0x10(%r15),%r14
    9dac:	ff 15 46 fc 04 00    	callq  *0x4fc46(%rip)        # 599f8 <_GLOBAL_OFFSET_TABLE_+0x278>
    9db2:	48 89 44 24 10       	mov    %rax,0x10(%rsp)
    9db7:	49 8b 36             	mov    (%r14),%rsi
    9dba:	48 89 df             	mov    %rbx,%rdi
    9dbd:	ff 15 9d 01 05 00    	callq  *0x5019d(%rip)        # 59f60 <_GLOBAL_OFFSET_TABLE_+0x7e0>
    9dc3:	48 89 df             	mov    %rbx,%rdi
    9dc6:	ff 15 ec fe 04 00    	callq  *0x4feec(%rip)        # 59cb8 <_GLOBAL_OFFSET_TABLE_+0x538>
    9dcc:	49 89 d8             	mov    %rbx,%r8
    9dcf:	49 8b 17             	mov    (%r15),%rdx
    9dd2:	49 8b 4f 08          	mov    0x8(%r15),%rcx
    9dd6:	48 89 c6             	mov    %rax,%rsi
    9dd9:	31 ff                	xor    %edi,%edi
    9ddb:	0f 1f 44 00 00       	nopl   0x0(%rax,%rax,1)
    9de0:	48 89 f5             	mov    %rsi,%rbp
    9de3:	48 21 d5             	and    %rdx,%rbp
    9de6:	f3 0f 6f 04 29       	movdqu (%rcx,%rbp,1),%xmm0
    9deb:	66 0f d7 d8          	pmovmskb %xmm0,%ebx
    9def:	48 8d 34 2f          	lea    (%rdi,%rbp,1),%rsi
    9df3:	48 83 c6 10          	add    $0x10,%rsi
    9df7:	48 83 c7 10          	add    $0x10,%rdi
    9dfb:	66 85 db             	test   %bx,%bx
    9dfe:	74 e0                	je     9de0 <_ZN9hashbrown3raw17RawTable$LT$T$GT$14reserve_rehash17hb290e1f3ec49d2b1E+0x210>
    9e00:	66 0f bc fb          	bsf    %bx,%di
    9e04:	0f b7 ff             	movzwl %di,%edi
    9e07:	48 01 fd             	add    %rdi,%rbp
    9e0a:	48 21 d5             	and    %rdx,%rbp
    9e0d:	80 3c 29 00          	cmpb   $0x0,(%rcx,%rbp,1)
    9e11:	0f 89 8f 00 00 00    	jns    9ea6 <_ZN9hashbrown3raw17RawTable$LT$T$GT$14reserve_rehash17hb290e1f3ec49d2b1E+0x2d6>
    9e17:	48 89 d7             	mov    %rdx,%rdi
    9e1a:	48 21 c7             	and    %rax,%rdi
    9e1d:	4c 89 e3             	mov    %r12,%rbx
    9e20:	48 29 fb             	sub    %rdi,%rbx
    9e23:	48 89 ee             	mov    %rbp,%rsi
    9e26:	48 29 fe             	sub    %rdi,%rsi
    9e29:	48 31 de             	xor    %rbx,%rsi
    9e2c:	48 21 d6             	and    %rdx,%rsi
    9e2f:	48 83 fe 0f          	cmp    $0xf,%rsi
    9e33:	0f 86 87 00 00 00    	jbe    9ec0 <_ZN9hashbrown3raw17RawTable$LT$T$GT$14reserve_rehash17hb290e1f3ec49d2b1E+0x2f0>
    9e39:	8a 1c 29             	mov    (%rcx,%rbp,1),%bl
    9e3c:	48 c1 e8 39          	shr    $0x39,%rax
    9e40:	48 8d 75 f0          	lea    -0x10(%rbp),%rsi
    9e44:	48 21 d6             	and    %rdx,%rsi
    9e47:	88 04 29             	mov    %al,(%rcx,%rbp,1)
    9e4a:	88 44 0e 10          	mov    %al,0x10(%rsi,%rcx,1)
    9e4e:	80 fb ff             	cmp    $0xff,%bl
    9e51:	0f 84 9a 00 00 00    	je     9ef1 <_ZN9hashbrown3raw17RawTable$LT$T$GT$14reserve_rehash17hb290e1f3ec49d2b1E+0x321>
    9e57:	49 8b 47 10          	mov    0x10(%r15),%rax
    9e5b:	48 8d 0c 6d 00 00 00 	lea    0x0(,%rbp,2),%rcx
    9e62:	00 
    9e63:	48 01 e9             	add    %rbp,%rcx
    9e66:	48 8b 54 c8 10       	mov    0x10(%rax,%rcx,8),%rdx
    9e6b:	48 89 54 24 20       	mov    %rdx,0x20(%rsp)
    9e70:	0f 10 04 c8          	movups (%rax,%rcx,8),%xmm0
    9e74:	0f 29 44 24 10       	movaps %xmm0,0x10(%rsp)
    9e79:	49 8b 56 10          	mov    0x10(%r14),%rdx
    9e7d:	48 89 54 c8 10       	mov    %rdx,0x10(%rax,%rcx,8)
    9e82:	41 0f 10 06          	movups (%r14),%xmm0
    9e86:	0f 11 04 c8          	movups %xmm0,(%rax,%rcx,8)
    9e8a:	48 8b 44 24 20       	mov    0x20(%rsp),%rax
    9e8f:	49 89 46 10          	mov    %rax,0x10(%r14)
    9e93:	66 0f 6f 44 24 10    	movdqa 0x10(%rsp),%xmm0
    9e99:	f3 41 0f 7f 06       	movdqu %xmm0,(%r14)
    9e9e:	4c 89 c3             	mov    %r8,%rbx
    9ea1:	e9 fa fe ff ff       	jmpq   9da0 <_ZN9hashbrown3raw17RawTable$LT$T$GT$14reserve_rehash17hb290e1f3ec49d2b1E+0x1d0>
    9ea6:	66 0f 6f 01          	movdqa (%rcx),%xmm0
    9eaa:	66 0f d7 f0          	pmovmskb %xmm0,%esi
    9eae:	66 0f bc f6          	bsf    %si,%si
    9eb2:	0f b7 ee             	movzwl %si,%ebp
    9eb5:	e9 5d ff ff ff       	jmpq   9e17 <_ZN9hashbrown3raw17RawTable$LT$T$GT$14reserve_rehash17hb290e1f3ec49d2b1E+0x247>
    9eba:	66 0f 1f 44 00 00    	nopw   0x0(%rax,%rax,1)
    9ec0:	48 c1 e8 39          	shr    $0x39,%rax
    9ec4:	49 8d 74 24 f0       	lea    -0x10(%r12),%rsi
    9ec9:	48 21 f2             	and    %rsi,%rdx
    9ecc:	42 88 04 21          	mov    %al,(%rcx,%r12,1)
    9ed0:	88 44 0a 10          	mov    %al,0x10(%rdx,%rcx,1)
    9ed4:	4c 89 c3             	mov    %r8,%rbx
    9ed7:	49 83 c4 01          	add    $0x1,%r12
    9edb:	4d 39 ec             	cmp    %r13,%r12
    9ede:	74 45                	je     9f25 <_ZN9hashbrown3raw17RawTable$LT$T$GT$14reserve_rehash17hb290e1f3ec49d2b1E+0x355>
    9ee0:	49 8b 47 08          	mov    0x8(%r15),%rax
    9ee4:	42 80 3c 20 80       	cmpb   $0x80,(%rax,%r12,1)
    9ee9:	0f 84 b1 fe ff ff    	je     9da0 <_ZN9hashbrown3raw17RawTable$LT$T$GT$14reserve_rehash17hb290e1f3ec49d2b1E+0x1d0>
    9eef:	eb e6                	jmp    9ed7 <_ZN9hashbrown3raw17RawTable$LT$T$GT$14reserve_rehash17hb290e1f3ec49d2b1E+0x307>
    9ef1:	49 8d 44 24 f0       	lea    -0x10(%r12),%rax
    9ef6:	49 23 07             	and    (%r15),%rax
    9ef9:	49 8b 4f 08          	mov    0x8(%r15),%rcx
    9efd:	42 c6 04 21 ff       	movb   $0xff,(%rcx,%r12,1)
    9f02:	c6 44 08 10 ff       	movb   $0xff,0x10(%rax,%rcx,1)
    9f07:	49 8b 47 10          	mov    0x10(%r15),%rax
    9f0b:	48 8d 4c 6d 00       	lea    0x0(%rbp,%rbp,2),%rcx
    9f10:	49 8b 56 10          	mov    0x10(%r14),%rdx
    9f14:	48 89 54 c8 10       	mov    %rdx,0x10(%rax,%rcx,8)
    9f19:	f3 41 0f 6f 06       	movdqu (%r14),%xmm0
    9f1e:	f3 0f 7f 04 c8       	movdqu %xmm0,(%rax,%rcx,8)
    9f23:	eb af                	jmp    9ed4 <_ZN9hashbrown3raw17RawTable$LT$T$GT$14reserve_rehash17hb290e1f3ec49d2b1E+0x304>
    9f25:	49 8b 3f             	mov    (%r15),%rdi
    9f28:	ff 15 f2 fc 04 00    	callq  *0x4fcf2(%rip)        # 59c20 <_GLOBAL_OFFSET_TABLE_+0x4a0>
    9f2e:	49 2b 47 20          	sub    0x20(%r15),%rax
    9f32:	49 89 47 18          	mov    %rax,0x18(%r15)
    9f36:	48 8b 6c 24 08       	mov    0x8(%rsp),%rbp
    9f3b:	48 c7 45 00 00 00 00 	movq   $0x0,0x0(%rbp)
    9f42:	00 
    9f43:	e9 33 02 00 00       	jmpq   a17b <_ZN9hashbrown3raw17RawTable$LT$T$GT$14reserve_rehash17hb290e1f3ec49d2b1E+0x5ab>
    9f48:	ff 15 22 fe 04 00    	callq  *0x4fe22(%rip)        # 59d70 <_GLOBAL_OFFSET_TABLE_+0x5f0>
    9f4e:	48 89 c3             	mov    %rax,%rbx
    9f51:	bd 08 00 00 00       	mov    $0x8,%ebp
    9f56:	45 31 e4             	xor    %r12d,%r12d
    9f59:	45 31 f6             	xor    %r14d,%r14d
    9f5c:	49 8b 47 20          	mov    0x20(%r15),%rax
    9f60:	49 29 c6             	sub    %rax,%r14
    9f63:	4c 89 64 24 10       	mov    %r12,0x10(%rsp)
    9f68:	48 89 5c 24 18       	mov    %rbx,0x18(%rsp)
    9f6d:	48 89 6c 24 20       	mov    %rbp,0x20(%rsp)
    9f72:	4c 89 74 24 28       	mov    %r14,0x28(%rsp)
    9f77:	48 89 44 24 40       	mov    %rax,0x40(%rsp)
    9f7c:	48 89 44 24 30       	mov    %rax,0x30(%rsp)
    9f81:	49 8b 6f 10          	mov    0x10(%r15),%rbp
    9f85:	49 8b 07             	mov    (%r15),%rax
    9f88:	4d 8b 6f 08          	mov    0x8(%r15),%r13
    9f8c:	4a 8d 44 28 01       	lea    0x1(%rax,%r13,1),%rax
    9f91:	48 89 44 24 50       	mov    %rax,0x50(%rsp)
    9f96:	66 41 0f 6f 45 00    	movdqa 0x0(%r13),%xmm0
    9f9c:	66 44 0f d7 f0       	pmovmskb %xmm0,%r14d
    9fa1:	41 f7 d6             	not    %r14d
    9fa4:	49 83 c5 10          	add    $0x10,%r13
    9fa8:	66 45 85 f6          	test   %r14w,%r14w
    9fac:	75 2d                	jne    9fdb <_ZN9hashbrown3raw17RawTable$LT$T$GT$14reserve_rehash17hb290e1f3ec49d2b1E+0x40b>
    9fae:	66 90                	xchg   %ax,%ax
    9fb0:	4c 3b 6c 24 50       	cmp    0x50(%rsp),%r13
    9fb5:	0f 83 fa 00 00 00    	jae    a0b5 <_ZN9hashbrown3raw17RawTable$LT$T$GT$14reserve_rehash17hb290e1f3ec49d2b1E+0x4e5>
    9fbb:	66 41 0f 6f 45 00    	movdqa 0x0(%r13),%xmm0
    9fc1:	66 44 0f d7 f0       	pmovmskb %xmm0,%r14d
    9fc6:	48 81 c5 80 01 00 00 	add    $0x180,%rbp
    9fcd:	49 83 c5 10          	add    $0x10,%r13
    9fd1:	66 41 83 fe ff       	cmp    $0xffff,%r14w
    9fd6:	74 d8                	je     9fb0 <_ZN9hashbrown3raw17RawTable$LT$T$GT$14reserve_rehash17hb290e1f3ec49d2b1E+0x3e0>
    9fd8:	41 f7 d6             	not    %r14d
    9fdb:	ff 15 17 fa 04 00    	callq  *0x4fa17(%rip)        # 599f8 <_GLOBAL_OFFSET_TABLE_+0x278>
    9fe1:	66 41 0f bc ce       	bsf    %r14w,%cx
    9fe6:	0f b7 c9             	movzwl %cx,%ecx
    9fe9:	48 8d 0c 49          	lea    (%rcx,%rcx,2),%rcx
    9fed:	48 8d 0c cd 00 00 00 	lea    0x0(,%rcx,8),%rcx
    9ff4:	00 
    9ff5:	48 01 e9             	add    %rbp,%rcx
    9ff8:	48 89 04 24          	mov    %rax,(%rsp)
    9ffc:	48 89 4c 24 48       	mov    %rcx,0x48(%rsp)
    a001:	48 8b 31             	mov    (%rcx),%rsi
    a004:	48 89 e7             	mov    %rsp,%rdi
    a007:	ff 15 53 ff 04 00    	callq  *0x4ff53(%rip)        # 59f60 <_GLOBAL_OFFSET_TABLE_+0x7e0>
    a00d:	48 89 e7             	mov    %rsp,%rdi
    a010:	ff 15 a2 fc 04 00    	callq  *0x4fca2(%rip)        # 59cb8 <_GLOBAL_OFFSET_TABLE_+0x538>
    a016:	41 8d 4e ff          	lea    -0x1(%r14),%ecx
    a01a:	44 21 f1             	and    %r14d,%ecx
    a01d:	41 89 ce             	mov    %ecx,%r14d
    a020:	48 89 c6             	mov    %rax,%rsi
    a023:	31 d2                	xor    %edx,%edx
    a025:	66 2e 0f 1f 84 00 00 	nopw   %cs:0x0(%rax,%rax,1)
    a02c:	00 00 00 
    a02f:	90                   	nop
    a030:	48 89 f1             	mov    %rsi,%rcx
    a033:	4c 21 e1             	and    %r12,%rcx
    a036:	f3 0f 6f 04 0b       	movdqu (%rbx,%rcx,1),%xmm0
    a03b:	66 0f d7 f8          	pmovmskb %xmm0,%edi
    a03f:	48 8d 34 0a          	lea    (%rdx,%rcx,1),%rsi
    a043:	48 83 c6 10          	add    $0x10,%rsi
    a047:	48 83 c2 10          	add    $0x10,%rdx
    a04b:	66 85 ff             	test   %di,%di
    a04e:	74 e0                	je     a030 <_ZN9hashbrown3raw17RawTable$LT$T$GT$14reserve_rehash17hb290e1f3ec49d2b1E+0x460>
    a050:	66 0f bc d7          	bsf    %di,%dx
    a054:	0f b7 d2             	movzwl %dx,%edx
    a057:	48 01 d1             	add    %rdx,%rcx
    a05a:	4c 21 e1             	and    %r12,%rcx
    a05d:	80 3c 0b 00          	cmpb   $0x0,(%rbx,%rcx,1)
    a061:	79 41                	jns    a0a4 <_ZN9hashbrown3raw17RawTable$LT$T$GT$14reserve_rehash17hb290e1f3ec49d2b1E+0x4d4>
    a063:	48 c1 e8 39          	shr    $0x39,%rax
    a067:	48 8d 51 f0          	lea    -0x10(%rcx),%rdx
    a06b:	4c 21 e2             	and    %r12,%rdx
    a06e:	88 04 0b             	mov    %al,(%rbx,%rcx,1)
    a071:	88 44 1a 10          	mov    %al,0x10(%rdx,%rbx,1)
    a075:	48 8b 44 24 20       	mov    0x20(%rsp),%rax
    a07a:	48 8d 0c 49          	lea    (%rcx,%rcx,2),%rcx
    a07e:	48 8b 74 24 48       	mov    0x48(%rsp),%rsi
    a083:	48 8b 56 10          	mov    0x10(%rsi),%rdx
    a087:	48 89 54 c8 10       	mov    %rdx,0x10(%rax,%rcx,8)
    a08c:	f3 0f 6f 06          	movdqu (%rsi),%xmm0
    a090:	f3 0f 7f 04 c8       	movdqu %xmm0,(%rax,%rcx,8)
    a095:	66 45 85 f6          	test   %r14w,%r14w
    a099:	0f 85 3c ff ff ff    	jne    9fdb <_ZN9hashbrown3raw17RawTable$LT$T$GT$14reserve_rehash17hb290e1f3ec49d2b1E+0x40b>
    a09f:	e9 0c ff ff ff       	jmpq   9fb0 <_ZN9hashbrown3raw17RawTable$LT$T$GT$14reserve_rehash17hb290e1f3ec49d2b1E+0x3e0>
    a0a4:	66 0f 6f 03          	movdqa (%rbx),%xmm0
    a0a8:	66 0f d7 c8          	pmovmskb %xmm0,%ecx
    a0ac:	66 0f bc c9          	bsf    %cx,%cx
    a0b0:	0f b7 c9             	movzwl %cx,%ecx
    a0b3:	eb ae                	jmp    a063 <_ZN9hashbrown3raw17RawTable$LT$T$GT$14reserve_rehash17hb290e1f3ec49d2b1E+0x493>
    a0b5:	f3 41 0f 6f 07       	movdqu (%r15),%xmm0
    a0ba:	41 0f 10 4f 10       	movups 0x10(%r15),%xmm1
    a0bf:	0f 10 54 24 10       	movups 0x10(%rsp),%xmm2
    a0c4:	0f 10 5c 24 20       	movups 0x20(%rsp),%xmm3
    a0c9:	41 0f 11 5f 10       	movups %xmm3,0x10(%r15)
    a0ce:	41 0f 11 17          	movups %xmm2,(%r15)
    a0d2:	f3 0f 7f 44 24 10    	movdqu %xmm0,0x10(%rsp)
    a0d8:	0f 11 4c 24 20       	movups %xmm1,0x20(%rsp)
    a0dd:	49 8b 47 20          	mov    0x20(%r15),%rax
    a0e1:	48 8b 4c 24 40       	mov    0x40(%rsp),%rcx
    a0e6:	49 89 4f 20          	mov    %rcx,0x20(%r15)
    a0ea:	48 89 44 24 30       	mov    %rax,0x30(%rsp)
    a0ef:	48 8b 6c 24 08       	mov    0x8(%rsp),%rbp
    a0f4:	48 c7 45 00 00 00 00 	movq   $0x0,0x0(%rbp)
    a0fb:	00 
    a0fc:	66 48 0f 7e c1       	movq   %xmm0,%rcx
    a101:	48 85 c9             	test   %rcx,%rcx
    a104:	74 75                	je     a17b <_ZN9hashbrown3raw17RawTable$LT$T$GT$14reserve_rehash17hb290e1f3ec49d2b1E+0x5ab>
    a106:	66 0f 70 c0 4e       	pshufd $0x4e,%xmm0,%xmm0
    a10b:	66 48 0f 7e c7       	movq   %xmm0,%rdi
    a110:	48 8d 41 01          	lea    0x1(%rcx),%rax
    a114:	ba 18 00 00 00       	mov    $0x18,%edx
    a119:	31 f6                	xor    %esi,%esi
    a11b:	48 f7 e2             	mul    %rdx
    a11e:	0f 91 c2             	setno  %dl
    a121:	70 21                	jo     a144 <_ZN9hashbrown3raw17RawTable$LT$T$GT$14reserve_rehash17hb290e1f3ec49d2b1E+0x574>
    a123:	40 88 d6             	mov    %dl,%sil
    a126:	48 c1 e6 03          	shl    $0x3,%rsi
    a12a:	48 8d 14 31          	lea    (%rcx,%rsi,1),%rdx
    a12e:	48 83 c2 10          	add    $0x10,%rdx
    a132:	48 83 c1 11          	add    $0x11,%rcx
    a136:	48 f7 de             	neg    %rsi
    a139:	48 21 d6             	and    %rdx,%rsi
    a13c:	48 29 ce             	sub    %rcx,%rsi
    a13f:	48 01 ce             	add    %rcx,%rsi
    a142:	73 49                	jae    a18d <_ZN9hashbrown3raw17RawTable$LT$T$GT$14reserve_rehash17hb290e1f3ec49d2b1E+0x5bd>
    a144:	31 d2                	xor    %edx,%edx
    a146:	ff 15 24 f9 04 00    	callq  *0x4f924(%rip)        # 59a70 <_GLOBAL_OFFSET_TABLE_+0x2f0>
    a14c:	eb 2d                	jmp    a17b <_ZN9hashbrown3raw17RawTable$LT$T$GT$14reserve_rehash17hb290e1f3ec49d2b1E+0x5ab>
    a14e:	bf 01 00 00 00       	mov    $0x1,%edi
    a153:	ff 15 1f fb 04 00    	callq  *0x4fb1f(%rip)        # 59c78 <_GLOBAL_OFFSET_TABLE_+0x4f8>
    a159:	eb 0b                	jmp    a166 <_ZN9hashbrown3raw17RawTable$LT$T$GT$14reserve_rehash17hb290e1f3ec49d2b1E+0x596>
    a15b:	bf 01 00 00 00       	mov    $0x1,%edi
    a160:	ff 15 12 fb 04 00    	callq  *0x4fb12(%rip)        # 59c78 <_GLOBAL_OFFSET_TABLE_+0x4f8>
    a166:	48 8b 6c 24 08       	mov    0x8(%rsp),%rbp
    a16b:	48 89 45 08          	mov    %rax,0x8(%rbp)
    a16f:	48 89 55 10          	mov    %rdx,0x10(%rbp)
    a173:	48 c7 45 00 01 00 00 	movq   $0x1,0x0(%rbp)
    a17a:	00 
    a17b:	48 89 e8             	mov    %rbp,%rax
    a17e:	48 83 c4 58          	add    $0x58,%rsp
    a182:	5b                   	pop    %rbx
    a183:	41 5c                	pop    %r12
    a185:	41 5d                	pop    %r13
    a187:	41 5e                	pop    %r14
    a189:	41 5f                	pop    %r15
    a18b:	5d                   	pop    %rbp
    a18c:	c3                   	retq   
    a18d:	48 8d 0c 06          	lea    (%rsi,%rax,1),%rcx
    a191:	31 db                	xor    %ebx,%ebx
    a193:	48 83 f9 f1          	cmp    $0xfffffffffffffff1,%rcx
    a197:	0f 92 c3             	setb   %bl
    a19a:	48 c1 e3 04          	shl    $0x4,%rbx
    a19e:	31 d2                	xor    %edx,%edx
    a1a0:	48 01 c6             	add    %rax,%rsi
    a1a3:	48 0f 43 d3          	cmovae %rbx,%rdx
    a1a7:	ff 15 c3 f8 04 00    	callq  *0x4f8c3(%rip)        # 59a70 <_GLOBAL_OFFSET_TABLE_+0x2f0>
    a1ad:	eb cc                	jmp    a17b <_ZN9hashbrown3raw17RawTable$LT$T$GT$14reserve_rehash17hb290e1f3ec49d2b1E+0x5ab>
    a1af:	ba 10 00 00 00       	mov    $0x10,%edx
    a1b4:	bf 01 00 00 00       	mov    $0x1,%edi
    a1b9:	4c 89 f6             	mov    %r14,%rsi
    a1bc:	ff 15 a6 fa 04 00    	callq  *0x4faa6(%rip)        # 59c68 <_GLOBAL_OFFSET_TABLE_+0x4e8>
    a1c2:	eb a2                	jmp    a166 <_ZN9hashbrown3raw17RawTable$LT$T$GT$14reserve_rehash17hb290e1f3ec49d2b1E+0x596>
    a1c4:	eb 14                	jmp    a1da <_ZN9hashbrown3raw17RawTable$LT$T$GT$14reserve_rehash17hb290e1f3ec49d2b1E+0x60a>
    a1c6:	48 89 c3             	mov    %rax,%rbx
    a1c9:	eb 1a                	jmp    a1e5 <_ZN9hashbrown3raw17RawTable$LT$T$GT$14reserve_rehash17hb290e1f3ec49d2b1E+0x615>
    a1cb:	48 89 c3             	mov    %rax,%rbx
    a1ce:	48 8d 7c 24 10       	lea    0x10(%rsp),%rdi
    a1d3:	e8 88 e0 ff ff       	callq  8260 <_ZN4core3ptr13drop_in_place17hd21e5a07c6f79fbdE>
    a1d8:	eb 0b                	jmp    a1e5 <_ZN9hashbrown3raw17RawTable$LT$T$GT$14reserve_rehash17hb290e1f3ec49d2b1E+0x615>
    a1da:	48 89 c3             	mov    %rax,%rbx
    a1dd:	48 89 e7             	mov    %rsp,%rdi
    a1e0:	e8 cb dd ff ff       	callq  7fb0 <_ZN4core3ptr13drop_in_place17ha34b9beaa9fa0e34E>
    a1e5:	48 89 df             	mov    %rbx,%rdi
    a1e8:	e8 d3 ce ff ff       	callq  70c0 <_Unwind_Resume@plt>
    a1ed:	0f 0b                	ud2    
    a1ef:	90                   	nop

000000000000a1f0 <_ZN9hashbrown3raw17RawTable$LT$T$GT$17try_with_capacity17hbfa960bead41bfc6E>:
    a1f0:	55                   	push   %rbp
    a1f1:	41 57                	push   %r15
    a1f3:	41 56                	push   %r14
    a1f5:	41 55                	push   %r13
    a1f7:	41 54                	push   %r12
    a1f9:	53                   	push   %rbx
    a1fa:	50                   	push   %rax
    a1fb:	48 89 fb             	mov    %rdi,%rbx
    a1fe:	48 85 f6             	test   %rsi,%rsi
    a201:	74 63                	je     a266 <_ZN9hashbrown3raw17RawTable$LT$T$GT$17try_with_capacity17hbfa960bead41bfc6E+0x76>
    a203:	89 d5                	mov    %edx,%ebp
    a205:	48 89 f7             	mov    %rsi,%rdi
    a208:	ff 15 da fd 04 00    	callq  *0x4fdda(%rip)        # 59fe8 <_GLOBAL_OFFSET_TABLE_+0x868>
    a20e:	48 85 c0             	test   %rax,%rax
    a211:	74 3a                	je     a24d <_ZN9hashbrown3raw17RawTable$LT$T$GT$17try_with_capacity17hbfa960bead41bfc6E+0x5d>
    a213:	49 89 d6             	mov    %rdx,%r14
    a216:	b9 10 00 00 00       	mov    $0x10,%ecx
    a21b:	45 31 ed             	xor    %r13d,%r13d
    a21e:	48 89 d0             	mov    %rdx,%rax
    a221:	48 f7 e1             	mul    %rcx
    a224:	49 89 c7             	mov    %rax,%r15
    a227:	0f 91 c0             	setno  %al
    a22a:	70 21                	jo     a24d <_ZN9hashbrown3raw17RawTable$LT$T$GT$17try_with_capacity17hbfa960bead41bfc6E+0x5d>
    a22c:	41 88 c5             	mov    %al,%r13b
    a22f:	49 c1 e5 03          	shl    $0x3,%r13
    a233:	4d 8d 66 10          	lea    0x10(%r14),%r12
    a237:	4b 8d 04 2e          	lea    (%r14,%r13,1),%rax
    a23b:	48 83 c0 0f          	add    $0xf,%rax
    a23f:	49 f7 dd             	neg    %r13
    a242:	49 21 c5             	and    %rax,%r13
    a245:	4d 29 e5             	sub    %r12,%r13
    a248:	4d 01 e5             	add    %r12,%r13
    a24b:	73 51                	jae    a29e <_ZN9hashbrown3raw17RawTable$LT$T$GT$17try_with_capacity17hbfa960bead41bfc6E+0xae>
    a24d:	40 0f b6 fd          	movzbl %bpl,%edi
    a251:	ff 15 21 fa 04 00    	callq  *0x4fa21(%rip)        # 59c78 <_GLOBAL_OFFSET_TABLE_+0x4f8>
    a257:	48 89 43 08          	mov    %rax,0x8(%rbx)
    a25b:	48 89 53 10          	mov    %rdx,0x10(%rbx)
    a25f:	b8 01 00 00 00       	mov    $0x1,%eax
    a264:	eb 23                	jmp    a289 <_ZN9hashbrown3raw17RawTable$LT$T$GT$17try_with_capacity17hbfa960bead41bfc6E+0x99>
    a266:	ff 15 04 fb 04 00    	callq  *0x4fb04(%rip)        # 59d70 <_GLOBAL_OFFSET_TABLE_+0x5f0>
    a26c:	48 c7 43 08 00 00 00 	movq   $0x0,0x8(%rbx)
    a273:	00 
    a274:	48 89 43 10          	mov    %rax,0x10(%rbx)
    a278:	48 c7 43 18 08 00 00 	movq   $0x8,0x18(%rbx)
    a27f:	00 
    a280:	0f 57 c0             	xorps  %xmm0,%xmm0
    a283:	0f 11 43 20          	movups %xmm0,0x20(%rbx)
    a287:	31 c0                	xor    %eax,%eax
    a289:	48 89 03             	mov    %rax,(%rbx)
    a28c:	48 89 d8             	mov    %rbx,%rax
    a28f:	48 83 c4 08          	add    $0x8,%rsp
    a293:	5b                   	pop    %rbx
    a294:	41 5c                	pop    %r12
    a296:	41 5d                	pop    %r13
    a298:	41 5e                	pop    %r14
    a29a:	41 5f                	pop    %r15
    a29c:	5d                   	pop    %rbp
    a29d:	c3                   	retq   
    a29e:	4d 01 ef             	add    %r13,%r15
    a2a1:	72 aa                	jb     a24d <_ZN9hashbrown3raw17RawTable$LT$T$GT$17try_with_capacity17hbfa960bead41bfc6E+0x5d>
    a2a3:	49 83 ff f0          	cmp    $0xfffffffffffffff0,%r15
    a2a7:	77 a4                	ja     a24d <_ZN9hashbrown3raw17RawTable$LT$T$GT$17try_with_capacity17hbfa960bead41bfc6E+0x5d>
    a2a9:	be 10 00 00 00       	mov    $0x10,%esi
    a2ae:	4c 89 ff             	mov    %r15,%rdi
    a2b1:	ff 15 f1 f9 04 00    	callq  *0x4f9f1(%rip)        # 59ca8 <_GLOBAL_OFFSET_TABLE_+0x528>
    a2b7:	48 85 c0             	test   %rax,%rax
    a2ba:	74 41                	je     a2fd <_ZN9hashbrown3raw17RawTable$LT$T$GT$17try_with_capacity17hbfa960bead41bfc6E+0x10d>
    a2bc:	49 01 c5             	add    %rax,%r13
    a2bf:	49 83 c6 ff          	add    $0xffffffffffffffff,%r14
    a2c3:	4c 89 f7             	mov    %r14,%rdi
    a2c6:	48 89 c5             	mov    %rax,%rbp
    a2c9:	ff 15 51 f9 04 00    	callq  *0x4f951(%rip)        # 59c20 <_GLOBAL_OFFSET_TABLE_+0x4a0>
    a2cf:	49 89 c7             	mov    %rax,%r15
    a2d2:	48 89 ef             	mov    %rbp,%rdi
    a2d5:	be ff 00 00 00       	mov    $0xff,%esi
    a2da:	4c 89 e2             	mov    %r12,%rdx
    a2dd:	ff 15 6d f5 04 00    	callq  *0x4f56d(%rip)        # 59850 <memset@GLIBC_2.2.5>
    a2e3:	4c 89 73 08          	mov    %r14,0x8(%rbx)
    a2e7:	48 89 6b 10          	mov    %rbp,0x10(%rbx)
    a2eb:	4c 89 6b 18          	mov    %r13,0x18(%rbx)
    a2ef:	4c 89 7b 20          	mov    %r15,0x20(%rbx)
    a2f3:	48 c7 43 28 00 00 00 	movq   $0x0,0x28(%rbx)
    a2fa:	00 
    a2fb:	eb 8a                	jmp    a287 <_ZN9hashbrown3raw17RawTable$LT$T$GT$17try_with_capacity17hbfa960bead41bfc6E+0x97>
    a2fd:	40 0f b6 fd          	movzbl %bpl,%edi
    a301:	ba 10 00 00 00       	mov    $0x10,%edx
    a306:	4c 89 fe             	mov    %r15,%rsi
    a309:	ff 15 59 f9 04 00    	callq  *0x4f959(%rip)        # 59c68 <_GLOBAL_OFFSET_TABLE_+0x4e8>
    a30f:	e9 43 ff ff ff       	jmpq   a257 <_ZN9hashbrown3raw17RawTable$LT$T$GT$17try_with_capacity17hbfa960bead41bfc6E+0x67>
    a314:	66 2e 0f 1f 84 00 00 	nopw   %cs:0x0(%rax,%rax,1)
    a31b:	00 00 00 
    a31e:	66 90                	xchg   %ax,%ax

000000000000a320 <_ZN6jlight8bytecode17BytecodeAssembler3new17hf1e020e3a875171eE>:
    a320:	48 89 f8             	mov    %rdi,%rax
    a323:	48 c7 07 01 00 00 00 	movq   $0x1,(%rdi)
    a32a:	0f 57 c0             	xorps  %xmm0,%xmm0
    a32d:	0f 11 47 08          	movups %xmm0,0x8(%rdi)
    a331:	48 c7 47 18 00 00 00 	movq   $0x0,0x18(%rdi)
    a338:	00 
    a339:	c3                   	retq   
    a33a:	66 0f 1f 44 00 00    	nopw   0x0(%rax,%rax,1)

000000000000a340 <_ZN6jlight8bytecode17BytecodeAssembler7lda_int17h4ad905074b295080E>:
    a340:	55                   	push   %rbp
    a341:	53                   	push   %rbx
    a342:	50                   	push   %rax
    a343:	89 f5                	mov    %esi,%ebp
    a345:	48 89 fb             	mov    %rdi,%rbx
    a348:	48 8b 47 10          	mov    0x10(%rdi),%rax
    a34c:	48 3b 47 08          	cmp    0x8(%rdi),%rax
    a350:	75 11                	jne    a363 <_ZN6jlight8bytecode17BytecodeAssembler7lda_int17h4ad905074b295080E+0x23>
    a352:	be 01 00 00 00       	mov    $0x1,%esi
    a357:	48 89 df             	mov    %rbx,%rdi
    a35a:	e8 d1 e6 ff ff       	callq  8a30 <_ZN5alloc3vec12Vec$LT$T$GT$7reserve17h586feee7908d59ecE>
    a35f:	48 8b 43 10          	mov    0x10(%rbx),%rax
    a363:	48 8b 0b             	mov    (%rbx),%rcx
    a366:	c6 04 01 0f          	movb   $0xf,(%rcx,%rax,1)
    a36a:	48 83 43 10 01       	addq   $0x1,0x10(%rbx)
    a36f:	be 04 00 00 00       	mov    $0x4,%esi
    a374:	48 89 df             	mov    %rbx,%rdi
    a377:	e8 b4 e6 ff ff       	callq  8a30 <_ZN5alloc3vec12Vec$LT$T$GT$7reserve17h586feee7908d59ecE>
    a37c:	48 8b 03             	mov    (%rbx),%rax
    a37f:	48 8b 4b 10          	mov    0x10(%rbx),%rcx
    a383:	89 2c 08             	mov    %ebp,(%rax,%rcx,1)
    a386:	48 83 c1 04          	add    $0x4,%rcx
    a38a:	48 89 4b 10          	mov    %rcx,0x10(%rbx)
    a38e:	48 83 c4 08          	add    $0x8,%rsp
    a392:	5b                   	pop    %rbx
    a393:	5d                   	pop    %rbp
    a394:	c3                   	retq   
    a395:	66 2e 0f 1f 84 00 00 	nopw   %cs:0x0(%rax,%rax,1)
    a39c:	00 00 00 
    a39f:	90                   	nop

000000000000a3a0 <_ZN6jlight8bytecode17BytecodeAssembler3ret17h2ef6447e4fc2d053E>:
    a3a0:	53                   	push   %rbx
    a3a1:	48 89 fb             	mov    %rdi,%rbx
    a3a4:	48 8b 47 10          	mov    0x10(%rdi),%rax
    a3a8:	48 3b 47 08          	cmp    0x8(%rdi),%rax
    a3ac:	75 11                	jne    a3bf <_ZN6jlight8bytecode17BytecodeAssembler3ret17h2ef6447e4fc2d053E+0x1f>
    a3ae:	be 01 00 00 00       	mov    $0x1,%esi
    a3b3:	48 89 df             	mov    %rbx,%rdi
    a3b6:	e8 75 e6 ff ff       	callq  8a30 <_ZN5alloc3vec12Vec$LT$T$GT$7reserve17h586feee7908d59ecE>
    a3bb:	48 8b 43 10          	mov    0x10(%rbx),%rax
    a3bf:	48 8b 0b             	mov    (%rbx),%rcx
    a3c2:	c6 04 01 37          	movb   $0x37,(%rcx,%rax,1)
    a3c6:	48 83 43 10 01       	addq   $0x1,0x10(%rbx)
    a3cb:	5b                   	pop    %rbx
    a3cc:	c3                   	retq   
    a3cd:	0f 1f 00             	nopl   (%rax)

000000000000a3d0 <_ZN6jlight6common8freelist8FreeList3new17h4be29511756b8b6fE>:
    a3d0:	55                   	push   %rbp
    a3d1:	41 57                	push   %r15
    a3d3:	41 56                	push   %r14
    a3d5:	41 55                	push   %r13
    a3d7:	41 54                	push   %r12
    a3d9:	53                   	push   %rbx
    a3da:	48 81 ec b8 00 00 00 	sub    $0xb8,%rsp
    a3e1:	48 89 7c 24 28       	mov    %rdi,0x28(%rsp)
    a3e6:	48 c7 44 24 60 20 01 	movq   $0x120,0x60(%rsp)
    a3ed:	00 00 
    a3ef:	48 c7 44 24 68 08 00 	movq   $0x8,0x68(%rsp)
    a3f6:	00 00 
    a3f8:	bf 20 01 00 00       	mov    $0x120,%edi
    a3fd:	be 08 00 00 00       	mov    $0x8,%esi
    a402:	ff 15 a0 f8 04 00    	callq  *0x4f8a0(%rip)        # 59ca8 <_GLOBAL_OFFSET_TABLE_+0x528>
    a408:	48 85 c0             	test   %rax,%rax
    a40b:	0f 84 ef 01 00 00    	je     a600 <_ZN6jlight6common8freelist8FreeList3new17h4be29511756b8b6fE+0x230>
    a411:	48 89 44 24 10       	mov    %rax,0x10(%rsp)
    a416:	48 c7 44 24 18 06 00 	movq   $0x6,0x18(%rsp)
    a41d:	00 00 
    a41f:	48 c7 44 24 20 00 00 	movq   $0x0,0x20(%rsp)
    a426:	00 00 
    a428:	4c 8d 7c 24 68       	lea    0x68(%rsp),%r15
    a42d:	48 8d 6c 24 38       	lea    0x38(%rsp),%rbp
    a432:	bb 06 00 00 00       	mov    $0x6,%ebx
    a437:	45 31 e4             	xor    %r12d,%r12d
    a43a:	48 89 44 24 08       	mov    %rax,0x8(%rsp)
    a43f:	49 89 c5             	mov    %rax,%r13
    a442:	45 31 f6             	xor    %r14d,%r14d
    a445:	e9 7d 00 00 00       	jmpq   a4c7 <_ZN6jlight6common8freelist8FreeList3new17h4be29511756b8b6fE+0xf7>
    a44a:	66 0f 1f 44 00 00    	nopw   0x0(%rax,%rax,1)
    a450:	48 85 ed             	test   %rbp,%rbp
    a453:	0f 84 26 01 00 00    	je     a57f <_ZN6jlight6common8freelist8FreeList3new17h4be29511756b8b6fE+0x1af>
    a459:	be 08 00 00 00       	mov    $0x8,%esi
    a45e:	48 89 ef             	mov    %rbp,%rdi
    a461:	ff 15 41 f8 04 00    	callq  *0x4f841(%rip)        # 59ca8 <_GLOBAL_OFFSET_TABLE_+0x528>
    a467:	49 89 c5             	mov    %rax,%r13
    a46a:	48 85 c0             	test   %rax,%rax
    a46d:	0f 84 73 01 00 00    	je     a5e6 <_ZN6jlight6common8freelist8FreeList3new17h4be29511756b8b6fE+0x216>
    a473:	48 89 e8             	mov    %rbp,%rax
    a476:	48 b9 ab aa aa aa aa 	movabs $0xaaaaaaaaaaaaaaab,%rcx
    a47d:	aa aa aa 
    a480:	48 f7 e1             	mul    %rcx
    a483:	48 89 d3             	mov    %rdx,%rbx
    a486:	48 c1 eb 05          	shr    $0x5,%rbx
    a48a:	4c 89 6c 24 08       	mov    %r13,0x8(%rsp)
    a48f:	48 8d 6c 24 38       	lea    0x38(%rsp),%rbp
    a494:	0f 10 44 24 30       	movups 0x30(%rsp),%xmm0
    a499:	0f 10 4c 24 40       	movups 0x40(%rsp),%xmm1
    a49e:	0f 10 54 24 50       	movups 0x50(%rsp),%xmm2
    a4a3:	43 0f 11 54 25 20    	movups %xmm2,0x20(%r13,%r12,1)
    a4a9:	43 0f 11 4c 25 10    	movups %xmm1,0x10(%r13,%r12,1)
    a4af:	43 0f 11 44 25 00    	movups %xmm0,0x0(%r13,%r12,1)
    a4b5:	49 83 c6 01          	add    $0x1,%r14
    a4b9:	49 83 c4 30          	add    $0x30,%r12
    a4bd:	49 83 fe 06          	cmp    $0x6,%r14
    a4c1:	0f 84 c3 00 00 00    	je     a58a <_ZN6jlight6common8freelist8FreeList3new17h4be29511756b8b6fE+0x1ba>
    a4c7:	be 64 00 00 00       	mov    $0x64,%esi
    a4cc:	48 8d 7c 24 60       	lea    0x60(%rsp),%rdi
    a4d1:	ba 01 00 00 00       	mov    $0x1,%edx
    a4d6:	e8 15 fd ff ff       	callq  a1f0 <_ZN9hashbrown3raw17RawTable$LT$T$GT$17try_with_capacity17hbfa960bead41bfc6E>
    a4db:	41 0f 10 07          	movups (%r15),%xmm0
    a4df:	41 0f 10 4f 10       	movups 0x10(%r15),%xmm1
    a4e4:	0f 29 84 24 90 00 00 	movaps %xmm0,0x90(%rsp)
    a4eb:	00 
    a4ec:	0f 29 8c 24 a0 00 00 	movaps %xmm1,0xa0(%rsp)
    a4f3:	00 
    a4f4:	49 8b 47 20          	mov    0x20(%r15),%rax
    a4f8:	48 89 84 24 b0 00 00 	mov    %rax,0xb0(%rsp)
    a4ff:	00 
    a500:	48 c7 44 24 30 00 00 	movq   $0x0,0x30(%rsp)
    a507:	00 00 
    a509:	48 89 45 20          	mov    %rax,0x20(%rbp)
    a50d:	0f 11 4d 10          	movups %xmm1,0x10(%rbp)
    a511:	0f 11 45 00          	movups %xmm0,0x0(%rbp)
    a515:	49 39 de             	cmp    %rbx,%r14
    a518:	0f 85 76 ff ff ff    	jne    a494 <_ZN6jlight6common8freelist8FreeList3new17h4be29511756b8b6fE+0xc4>
    a51e:	48 89 d8             	mov    %rbx,%rax
    a521:	48 ff c0             	inc    %rax
    a524:	0f 84 a0 00 00 00    	je     a5ca <_ZN6jlight6common8freelist8FreeList3new17h4be29511756b8b6fE+0x1fa>
    a52a:	48 8d 0c 1b          	lea    (%rbx,%rbx,1),%rcx
    a52e:	48 39 c1             	cmp    %rax,%rcx
    a531:	48 0f 47 c1          	cmova  %rcx,%rax
    a535:	b9 30 00 00 00       	mov    $0x30,%ecx
    a53a:	48 f7 e1             	mul    %rcx
    a53d:	0f 80 87 00 00 00    	jo     a5ca <_ZN6jlight6common8freelist8FreeList3new17h4be29511756b8b6fE+0x1fa>
    a543:	48 89 c5             	mov    %rax,%rbp
    a546:	48 85 db             	test   %rbx,%rbx
    a549:	0f 84 01 ff ff ff    	je     a450 <_ZN6jlight6common8freelist8FreeList3new17h4be29511756b8b6fE+0x80>
    a54f:	48 c1 e3 04          	shl    $0x4,%rbx
    a553:	48 8d 34 5b          	lea    (%rbx,%rbx,2),%rsi
    a557:	48 39 ee             	cmp    %rbp,%rsi
    a55a:	0f 84 13 ff ff ff    	je     a473 <_ZN6jlight6common8freelist8FreeList3new17h4be29511756b8b6fE+0xa3>
    a560:	48 85 f6             	test   %rsi,%rsi
    a563:	0f 84 e7 fe ff ff    	je     a450 <_ZN6jlight6common8freelist8FreeList3new17h4be29511756b8b6fE+0x80>
    a569:	ba 08 00 00 00       	mov    $0x8,%edx
    a56e:	4c 89 ef             	mov    %r13,%rdi
    a571:	48 89 e9             	mov    %rbp,%rcx
    a574:	ff 15 be f2 04 00    	callq  *0x4f2be(%rip)        # 59838 <_GLOBAL_OFFSET_TABLE_+0xb8>
    a57a:	e9 e8 fe ff ff       	jmpq   a467 <_ZN6jlight6common8freelist8FreeList3new17h4be29511756b8b6fE+0x97>
    a57f:	41 bd 08 00 00 00    	mov    $0x8,%r13d
    a585:	e9 e9 fe ff ff       	jmpq   a473 <_ZN6jlight6common8freelist8FreeList3new17h4be29511756b8b6fE+0xa3>
    a58a:	48 8b 44 24 08       	mov    0x8(%rsp),%rax
    a58f:	48 89 44 24 10       	mov    %rax,0x10(%rsp)
    a594:	4c 89 74 24 20       	mov    %r14,0x20(%rsp)
    a599:	48 89 5c 24 18       	mov    %rbx,0x18(%rsp)
    a59e:	48 8b 44 24 28       	mov    0x28(%rsp),%rax
    a5a3:	4c 89 70 10          	mov    %r14,0x10(%rax)
    a5a7:	48 8b 4c 24 10       	mov    0x10(%rsp),%rcx
    a5ac:	48 89 08             	mov    %rcx,(%rax)
    a5af:	48 8b 4c 24 18       	mov    0x18(%rsp),%rcx
    a5b4:	48 89 48 08          	mov    %rcx,0x8(%rax)
    a5b8:	48 81 c4 b8 00 00 00 	add    $0xb8,%rsp
    a5bf:	5b                   	pop    %rbx
    a5c0:	41 5c                	pop    %r12
    a5c2:	41 5d                	pop    %r13
    a5c4:	41 5e                	pop    %r14
    a5c6:	41 5f                	pop    %r15
    a5c8:	5d                   	pop    %rbp
    a5c9:	c3                   	retq   
    a5ca:	48 8b 44 24 08       	mov    0x8(%rsp),%rax
    a5cf:	48 89 44 24 10       	mov    %rax,0x10(%rsp)
    a5d4:	48 89 5c 24 20       	mov    %rbx,0x20(%rsp)
    a5d9:	48 89 5c 24 18       	mov    %rbx,0x18(%rsp)
    a5de:	ff 15 4c f5 04 00    	callq  *0x4f54c(%rip)        # 59b30 <_GLOBAL_OFFSET_TABLE_+0x3b0>
    a5e4:	0f 0b                	ud2    
    a5e6:	48 8b 44 24 08       	mov    0x8(%rsp),%rax
    a5eb:	48 89 44 24 10       	mov    %rax,0x10(%rsp)
    a5f0:	be 08 00 00 00       	mov    $0x8,%esi
    a5f5:	48 89 ef             	mov    %rbp,%rdi
    a5f8:	ff 15 32 f3 04 00    	callq  *0x4f332(%rip)        # 59930 <_GLOBAL_OFFSET_TABLE_+0x1b0>
    a5fe:	0f 0b                	ud2    
    a600:	48 8d 7c 24 60       	lea    0x60(%rsp),%rdi
    a605:	e8 a6 e5 ff ff       	callq  8bb0 <_ZN5alloc7raw_vec19RawVec$LT$T$C$A$GT$11allocate_in28_$u7b$$u7b$closure$u7d$$u7d$17h58abb96f69233ea5E>
    a60a:	0f 0b                	ud2    
    a60c:	48 89 c5             	mov    %rax,%rbp
    a60f:	48 8d 7c 24 30       	lea    0x30(%rsp),%rdi
    a614:	e8 87 da ff ff       	callq  80a0 <_ZN4core3ptr13drop_in_place17hac00db0e2895f197E>
    a619:	eb 17                	jmp    a632 <_ZN6jlight6common8freelist8FreeList3new17h4be29511756b8b6fE+0x262>
    a61b:	48 89 c5             	mov    %rax,%rbp
    a61e:	48 8b 44 24 08       	mov    0x8(%rsp),%rax
    a623:	48 89 44 24 10       	mov    %rax,0x10(%rsp)
    a628:	4c 89 74 24 20       	mov    %r14,0x20(%rsp)
    a62d:	48 89 5c 24 18       	mov    %rbx,0x18(%rsp)
    a632:	48 8d 7c 24 10       	lea    0x10(%rsp),%rdi
    a637:	e8 84 d6 ff ff       	callq  7cc0 <_ZN4core3ptr13drop_in_place17h36f96d8006312beeE>
    a63c:	48 89 ef             	mov    %rbp,%rdi
    a63f:	e8 7c ca ff ff       	callq  70c0 <_Unwind_Resume@plt>
    a644:	0f 0b                	ud2    
    a646:	66 2e 0f 1f 84 00 00 	nopw   %cs:0x0(%rax,%rax,1)
    a64d:	00 00 00 

000000000000a650 <_ZN6jlight6common8freelist8FreeList5alloc17h2f2d6f4ee78f41ecE>:
    a650:	55                   	push   %rbp
    a651:	41 57                	push   %r15
    a653:	41 56                	push   %r14
    a655:	41 55                	push   %r13
    a657:	41 54                	push   %r12
    a659:	53                   	push   %rbx
    a65a:	50                   	push   %rax
    a65b:	48 83 fe 01          	cmp    $0x1,%rsi
    a65f:	74 42                	je     a6a3 <_ZN6jlight6common8freelist8FreeList5alloc17h2f2d6f4ee78f41ecE+0x53>
    a661:	48 85 f6             	test   %rsi,%rsi
    a664:	0f 84 92 05 00 00    	je     abfc <_ZN6jlight6common8freelist8FreeList5alloc17h2f2d6f4ee78f41ecE+0x5ac>
    a66a:	b9 01 00 00 00       	mov    $0x1,%ecx
    a66f:	48 83 fe 21          	cmp    $0x21,%rsi
    a673:	72 30                	jb     a6a5 <_ZN6jlight6common8freelist8FreeList5alloc17h2f2d6f4ee78f41ecE+0x55>
    a675:	b9 02 00 00 00       	mov    $0x2,%ecx
    a67a:	48 81 fe 81 00 00 00 	cmp    $0x81,%rsi
    a681:	72 22                	jb     a6a5 <_ZN6jlight6common8freelist8FreeList5alloc17h2f2d6f4ee78f41ecE+0x55>
    a683:	b9 03 00 00 00       	mov    $0x3,%ecx
    a688:	48 81 fe 01 08 00 00 	cmp    $0x801,%rsi
    a68f:	72 14                	jb     a6a5 <_ZN6jlight6common8freelist8FreeList5alloc17h2f2d6f4ee78f41ecE+0x55>
    a691:	48 81 fe 01 20 00 00 	cmp    $0x2001,%rsi
    a698:	b9 05 00 00 00       	mov    $0x5,%ecx
    a69d:	48 83 d9 00          	sbb    $0x0,%rcx
    a6a1:	eb 02                	jmp    a6a5 <_ZN6jlight6common8freelist8FreeList5alloc17h2f2d6f4ee78f41ecE+0x55>
    a6a3:	31 c9                	xor    %ecx,%ecx
    a6a5:	48 8b 1f             	mov    (%rdi),%rbx
    a6a8:	4c 8b 47 10          	mov    0x10(%rdi),%r8
    a6ac:	48 83 f9 05          	cmp    $0x5,%rcx
    a6b0:	0f 85 0b 01 00 00    	jne    a7c1 <_ZN6jlight6common8freelist8FreeList5alloc17h2f2d6f4ee78f41ecE+0x171>
    a6b6:	49 83 f8 05          	cmp    $0x5,%r8
    a6ba:	0f 86 56 05 00 00    	jbe    ac16 <_ZN6jlight6common8freelist8FreeList5alloc17h2f2d6f4ee78f41ecE+0x5c6>
    a6c0:	48 8b 8b f0 00 00 00 	mov    0xf0(%rbx),%rcx
    a6c7:	48 85 c9             	test   %rcx,%rcx
    a6ca:	0f 84 c7 02 00 00    	je     a997 <_ZN6jlight6common8freelist8FreeList5alloc17h2f2d6f4ee78f41ecE+0x347>
    a6d0:	49 bb 95 0a 22 27 b7 	movabs $0x517cc1b727220a95,%r11
    a6d7:	c1 7c 51 
    a6da:	4c 8b b3 f8 00 00 00 	mov    0xf8(%rbx),%r14
    a6e1:	4c 8b 83 00 01 00 00 	mov    0x100(%rbx),%r8
    a6e8:	48 89 1c 24          	mov    %rbx,(%rsp)
    a6ec:	4c 8b 93 08 01 00 00 	mov    0x108(%rbx),%r10
    a6f3:	31 d2                	xor    %edx,%edx
    a6f5:	66 0f 76 c9          	pcmpeqd %xmm1,%xmm1
    a6f9:	45 31 ff             	xor    %r15d,%r15d
    a6fc:	0f 1f 40 00          	nopl   0x0(%rax)
    a700:	48 89 c8             	mov    %rcx,%rax
    a703:	49 89 cc             	mov    %rcx,%r12
    a706:	4d 0f af e3          	imul   %r11,%r12
    a70a:	4c 89 e1             	mov    %r12,%rcx
    a70d:	48 c1 e9 39          	shr    $0x39,%rcx
    a711:	66 0f 6e c1          	movd   %ecx,%xmm0
    a715:	66 0f 60 c0          	punpcklbw %xmm0,%xmm0
    a719:	f2 0f 70 c0 e0       	pshuflw $0xe0,%xmm0,%xmm0
    a71e:	66 0f 70 c0 00       	pshufd $0x0,%xmm0,%xmm0
    a723:	4d 89 e5             	mov    %r12,%r13
    a726:	31 c9                	xor    %ecx,%ecx
    a728:	4c 89 ef             	mov    %r13,%rdi
    a72b:	4c 21 f7             	and    %r14,%rdi
    a72e:	4c 8d 2c 39          	lea    (%rcx,%rdi,1),%r13
    a732:	49 83 c5 10          	add    $0x10,%r13
    a736:	48 83 c1 10          	add    $0x10,%rcx
    a73a:	f3 41 0f 6f 14 38    	movdqu (%r8,%rdi,1),%xmm2
    a740:	66 0f 6f da          	movdqa %xmm2,%xmm3
    a744:	66 0f 74 d8          	pcmpeqb %xmm0,%xmm3
    a748:	66 0f d7 eb          	pmovmskb %xmm3,%ebp
    a74c:	66 85 ed             	test   %bp,%bp
    a74f:	74 23                	je     a774 <_ZN6jlight6common8freelist8FreeList5alloc17h2f2d6f4ee78f41ecE+0x124>
    a751:	66 0f bc dd          	bsf    %bp,%bx
    a755:	0f b7 db             	movzwl %bx,%ebx
    a758:	44 8d 4d ff          	lea    -0x1(%rbp),%r9d
    a75c:	41 21 e9             	and    %ebp,%r9d
    a75f:	48 01 fb             	add    %rdi,%rbx
    a762:	4c 21 f3             	and    %r14,%rbx
    a765:	48 c1 e3 04          	shl    $0x4,%rbx
    a769:	44 89 cd             	mov    %r9d,%ebp
    a76c:	49 39 04 1a          	cmp    %rax,(%r10,%rbx,1)
    a770:	74 1e                	je     a790 <_ZN6jlight6common8freelist8FreeList5alloc17h2f2d6f4ee78f41ecE+0x140>
    a772:	eb d8                	jmp    a74c <_ZN6jlight6common8freelist8FreeList5alloc17h2f2d6f4ee78f41ecE+0xfc>
    a774:	66 0f 74 d1          	pcmpeqb %xmm1,%xmm2
    a778:	66 0f d7 fa          	pmovmskb %xmm2,%edi
    a77c:	66 85 ff             	test   %di,%di
    a77f:	74 a7                	je     a728 <_ZN6jlight6common8freelist8FreeList5alloc17h2f2d6f4ee78f41ecE+0xd8>
    a781:	e9 41 04 00 00       	jmpq   abc7 <_ZN6jlight6common8freelist8FreeList5alloc17h2f2d6f4ee78f41ecE+0x577>
    a786:	66 2e 0f 1f 84 00 00 	nopw   %cs:0x0(%rax,%rax,1)
    a78d:	00 00 00 
    a790:	4c 01 d3             	add    %r10,%rbx
    a793:	0f 84 2e 04 00 00    	je     abc7 <_ZN6jlight6common8freelist8FreeList5alloc17h2f2d6f4ee78f41ecE+0x577>
    a799:	48 39 73 08          	cmp    %rsi,0x8(%rbx)
    a79d:	0f 83 fd 01 00 00    	jae    a9a0 <_ZN6jlight6common8freelist8FreeList5alloc17h2f2d6f4ee78f41ecE+0x350>
    a7a3:	48 85 c0             	test   %rax,%rax
    a7a6:	0f 84 36 04 00 00    	je     abe2 <_ZN6jlight6common8freelist8FreeList5alloc17h2f2d6f4ee78f41ecE+0x592>
    a7ac:	48 8b 48 08          	mov    0x8(%rax),%rcx
    a7b0:	49 89 c7             	mov    %rax,%r15
    a7b3:	48 85 c9             	test   %rcx,%rcx
    a7b6:	0f 85 44 ff ff ff    	jne    a700 <_ZN6jlight6common8freelist8FreeList5alloc17h2f2d6f4ee78f41ecE+0xb0>
    a7bc:	e9 d8 01 00 00       	jmpq   a999 <_ZN6jlight6common8freelist8FreeList5alloc17h2f2d6f4ee78f41ecE+0x349>
    a7c1:	49 39 c8             	cmp    %rcx,%r8
    a7c4:	0f 86 80 04 00 00    	jbe    ac4a <_ZN6jlight6common8freelist8FreeList5alloc17h2f2d6f4ee78f41ecE+0x5fa>
    a7ca:	48 8d 14 49          	lea    (%rcx,%rcx,2),%rdx
    a7ce:	48 c1 e2 04          	shl    $0x4,%rdx
    a7d2:	48 8b 04 13          	mov    (%rbx,%rdx,1),%rax
    a7d6:	48 85 c0             	test   %rax,%rax
    a7d9:	0f 84 f2 01 00 00    	je     a9d1 <_ZN6jlight6common8freelist8FreeList5alloc17h2f2d6f4ee78f41ecE+0x381>
    a7df:	48 01 d3             	add    %rdx,%rbx
    a7e2:	48 8b 50 08          	mov    0x8(%rax),%rdx
    a7e6:	48 89 13             	mov    %rdx,(%rbx)
    a7e9:	4c 8b 47 10          	mov    0x10(%rdi),%r8
    a7ed:	49 39 c8             	cmp    %rcx,%r8
    a7f0:	0f 86 2e 04 00 00    	jbe    ac24 <_ZN6jlight6common8freelist8FreeList5alloc17h2f2d6f4ee78f41ecE+0x5d4>
    a7f6:	4c 8b 07             	mov    (%rdi),%r8
    a7f9:	49 bc 95 0a 22 27 b7 	movabs $0x517cc1b727220a95,%r12
    a800:	c1 7c 51 
    a803:	4c 0f af e0          	imul   %rax,%r12
    a807:	4c 8d 1c 49          	lea    (%rcx,%rcx,2),%r11
    a80b:	49 c1 e3 04          	shl    $0x4,%r11
    a80f:	4f 8b 74 18 08       	mov    0x8(%r8,%r11,1),%r14
    a814:	4f 8b 4c 18 10       	mov    0x10(%r8,%r11,1),%r9
    a819:	4c 89 e1             	mov    %r12,%rcx
    a81c:	48 c1 e9 39          	shr    $0x39,%rcx
    a820:	66 0f 6e c1          	movd   %ecx,%xmm0
    a824:	66 0f 60 c0          	punpcklbw %xmm0,%xmm0
    a828:	f2 0f 70 c0 e0       	pshuflw $0xe0,%xmm0,%xmm0
    a82d:	66 0f 70 c0 00       	pshufd $0x0,%xmm0,%xmm0
    a832:	4f 8b 54 18 18       	mov    0x18(%r8,%r11,1),%r10
    a837:	31 db                	xor    %ebx,%ebx
    a839:	66 0f 76 c9          	pcmpeqd %xmm1,%xmm1
    a83d:	4d 89 e7             	mov    %r12,%r15
    a840:	4c 89 f9             	mov    %r15,%rcx
    a843:	4c 21 f1             	and    %r14,%rcx
    a846:	4c 8d 3c 0b          	lea    (%rbx,%rcx,1),%r15
    a84a:	49 83 c7 10          	add    $0x10,%r15
    a84e:	48 83 c3 10          	add    $0x10,%rbx
    a852:	f3 41 0f 6f 14 09    	movdqu (%r9,%rcx,1),%xmm2
    a858:	66 0f 6f da          	movdqa %xmm2,%xmm3
    a85c:	66 0f 74 d8          	pcmpeqb %xmm0,%xmm3
    a860:	66 0f d7 eb          	pmovmskb %xmm3,%ebp
    a864:	66 85 ed             	test   %bp,%bp
    a867:	74 20                	je     a889 <_ZN6jlight6common8freelist8FreeList5alloc17h2f2d6f4ee78f41ecE+0x239>
    a869:	66 0f bc fd          	bsf    %bp,%di
    a86d:	0f b7 ff             	movzwl %di,%edi
    a870:	8d 55 ff             	lea    -0x1(%rbp),%edx
    a873:	21 ea                	and    %ebp,%edx
    a875:	48 01 cf             	add    %rcx,%rdi
    a878:	4c 21 f7             	and    %r14,%rdi
    a87b:	48 c1 e7 04          	shl    $0x4,%rdi
    a87f:	89 d5                	mov    %edx,%ebp
    a881:	49 39 04 3a          	cmp    %rax,(%r10,%rdi,1)
    a885:	74 14                	je     a89b <_ZN6jlight6common8freelist8FreeList5alloc17h2f2d6f4ee78f41ecE+0x24b>
    a887:	eb db                	jmp    a864 <_ZN6jlight6common8freelist8FreeList5alloc17h2f2d6f4ee78f41ecE+0x214>
    a889:	66 0f 74 d1          	pcmpeqb %xmm1,%xmm2
    a88d:	66 0f d7 ca          	pmovmskb %xmm2,%ecx
    a891:	66 85 c9             	test   %cx,%cx
    a894:	74 aa                	je     a840 <_ZN6jlight6common8freelist8FreeList5alloc17h2f2d6f4ee78f41ecE+0x1f0>
    a896:	e9 2c 03 00 00       	jmpq   abc7 <_ZN6jlight6common8freelist8FreeList5alloc17h2f2d6f4ee78f41ecE+0x577>
    a89b:	4c 01 d7             	add    %r10,%rdi
    a89e:	0f 84 23 03 00 00    	je     abc7 <_ZN6jlight6common8freelist8FreeList5alloc17h2f2d6f4ee78f41ecE+0x577>
    a8a4:	48 39 77 08          	cmp    %rsi,0x8(%rdi)
    a8a8:	0f 82 7f 03 00 00    	jb     ac2d <_ZN6jlight6common8freelist8FreeList5alloc17h2f2d6f4ee78f41ecE+0x5dd>
    a8ae:	31 db                	xor    %ebx,%ebx
    a8b0:	66 0f 76 c9          	pcmpeqd %xmm1,%xmm1
    a8b4:	4c 89 e1             	mov    %r12,%rcx
    a8b7:	4c 21 f1             	and    %r14,%rcx
    a8ba:	4c 8d 24 0b          	lea    (%rbx,%rcx,1),%r12
    a8be:	49 83 c4 10          	add    $0x10,%r12
    a8c2:	48 83 c3 10          	add    $0x10,%rbx
    a8c6:	f3 41 0f 6f 14 09    	movdqu (%r9,%rcx,1),%xmm2
    a8cc:	66 0f 6f da          	movdqa %xmm2,%xmm3
    a8d0:	66 0f 74 d8          	pcmpeqb %xmm0,%xmm3
    a8d4:	66 0f d7 fb          	pmovmskb %xmm3,%edi
    a8d8:	66 85 ff             	test   %di,%di
    a8db:	74 20                	je     a8fd <_ZN6jlight6common8freelist8FreeList5alloc17h2f2d6f4ee78f41ecE+0x2ad>
    a8dd:	66 0f bc d7          	bsf    %di,%dx
    a8e1:	0f b7 f2             	movzwl %dx,%esi
    a8e4:	8d 57 ff             	lea    -0x1(%rdi),%edx
    a8e7:	21 fa                	and    %edi,%edx
    a8e9:	48 01 ce             	add    %rcx,%rsi
    a8ec:	4c 21 f6             	and    %r14,%rsi
    a8ef:	48 c1 e6 04          	shl    $0x4,%rsi
    a8f3:	89 d7                	mov    %edx,%edi
    a8f5:	49 3b 04 32          	cmp    (%r10,%rsi,1),%rax
    a8f9:	74 22                	je     a91d <_ZN6jlight6common8freelist8FreeList5alloc17h2f2d6f4ee78f41ecE+0x2cd>
    a8fb:	eb db                	jmp    a8d8 <_ZN6jlight6common8freelist8FreeList5alloc17h2f2d6f4ee78f41ecE+0x288>
    a8fd:	66 0f 74 d1          	pcmpeqb %xmm1,%xmm2
    a901:	66 0f d7 ca          	pmovmskb %xmm2,%ecx
    a905:	66 85 c9             	test   %cx,%cx
    a908:	74 aa                	je     a8b4 <_ZN6jlight6common8freelist8FreeList5alloc17h2f2d6f4ee78f41ecE+0x264>
    a90a:	48 8d 3d 28 9a 03 00 	lea    0x39a28(%rip),%rdi        # 44339 <_fini+0xb21>
    a911:	48 8d 15 e0 c8 04 00 	lea    0x4c8e0(%rip),%rdx        # 571f8 <__do_global_dtors_aux_fini_array_entry+0x2a8>
    a918:	e9 60 01 00 00       	jmpq   aa7d <_ZN6jlight6common8freelist8FreeList5alloc17h2f2d6f4ee78f41ecE+0x42d>
    a91d:	48 89 f2             	mov    %rsi,%rdx
    a920:	48 c1 fa 04          	sar    $0x4,%rdx
    a924:	48 8d 5a f0          	lea    -0x10(%rdx),%rbx
    a928:	4c 21 f3             	and    %r14,%rbx
    a92b:	f3 41 0f 6f 04 19    	movdqu (%r9,%rbx,1),%xmm0
    a931:	66 0f 76 c9          	pcmpeqd %xmm1,%xmm1
    a935:	66 0f 74 c1          	pcmpeqb %xmm1,%xmm0
    a939:	66 0f d7 f8          	pmovmskb %xmm0,%edi
    a93d:	f3 41 0f 6f 04 11    	movdqu (%r9,%rdx,1),%xmm0
    a943:	66 0f 74 c1          	pcmpeqb %xmm1,%xmm0
    a947:	66 0f d7 e8          	pmovmskb %xmm0,%ebp
    a94b:	66 41 be 10 00       	mov    $0x10,%r14w
    a950:	66 b9 10 00          	mov    $0x10,%cx
    a954:	66 85 ff             	test   %di,%di
    a957:	74 07                	je     a960 <_ZN6jlight6common8freelist8FreeList5alloc17h2f2d6f4ee78f41ecE+0x310>
    a959:	66 0f bd cf          	bsr    %di,%cx
    a95d:	83 f1 0f             	xor    $0xf,%ecx
    a960:	66 85 ed             	test   %bp,%bp
    a963:	74 05                	je     a96a <_ZN6jlight6common8freelist8FreeList5alloc17h2f2d6f4ee78f41ecE+0x31a>
    a965:	66 44 0f bc f5       	bsf    %bp,%r14w
    a96a:	49 01 f2             	add    %rsi,%r10
    a96d:	41 0f b7 f6          	movzwl %r14w,%esi
    a971:	01 ce                	add    %ecx,%esi
    a973:	b1 80                	mov    $0x80,%cl
    a975:	66 83 fe 0f          	cmp    $0xf,%si
    a979:	77 08                	ja     a983 <_ZN6jlight6common8freelist8FreeList5alloc17h2f2d6f4ee78f41ecE+0x333>
    a97b:	4b 83 44 18 20 01    	addq   $0x1,0x20(%r8,%r11,1)
    a981:	b1 ff                	mov    $0xff,%cl
    a983:	41 88 0c 11          	mov    %cl,(%r9,%rdx,1)
    a987:	42 88 4c 0b 10       	mov    %cl,0x10(%rbx,%r9,1)
    a98c:	4b 83 44 18 28 ff    	addq   $0xffffffffffffffff,0x28(%r8,%r11,1)
    a992:	e9 6c 01 00 00       	jmpq   ab03 <_ZN6jlight6common8freelist8FreeList5alloc17h2f2d6f4ee78f41ecE+0x4b3>
    a997:	31 d2                	xor    %edx,%edx
    a999:	31 c0                	xor    %eax,%eax
    a99b:	e9 67 01 00 00       	jmpq   ab07 <_ZN6jlight6common8freelist8FreeList5alloc17h2f2d6f4ee78f41ecE+0x4b7>
    a9a0:	48 85 c0             	test   %rax,%rax
    a9a3:	0f 84 39 02 00 00    	je     abe2 <_ZN6jlight6common8freelist8FreeList5alloc17h2f2d6f4ee78f41ecE+0x592>
    a9a9:	48 8b 48 08          	mov    0x8(%rax),%rcx
    a9ad:	4d 85 ff             	test   %r15,%r15
    a9b0:	74 56                	je     aa08 <_ZN6jlight6common8freelist8FreeList5alloc17h2f2d6f4ee78f41ecE+0x3b8>
    a9b2:	49 89 4f 08          	mov    %rcx,0x8(%r15)
    a9b6:	4c 8b 0c 24          	mov    (%rsp),%r9
    a9ba:	4d 8b b1 f8 00 00 00 	mov    0xf8(%r9),%r14
    a9c1:	4d 8b 81 00 01 00 00 	mov    0x100(%r9),%r8
    a9c8:	4d 8b 91 08 01 00 00 	mov    0x108(%r9),%r10
    a9cf:	eb 42                	jmp    aa13 <_ZN6jlight6common8freelist8FreeList5alloc17h2f2d6f4ee78f41ecE+0x3c3>
    a9d1:	48 8d 51 01          	lea    0x1(%rcx),%rdx
    a9d5:	48 83 fa 05          	cmp    $0x5,%rdx
    a9d9:	0f 84 d7 fc ff ff    	je     a6b6 <_ZN6jlight6common8freelist8FreeList5alloc17h2f2d6f4ee78f41ecE+0x66>
    a9df:	49 39 d0             	cmp    %rdx,%r8
    a9e2:	0f 86 5f 02 00 00    	jbe    ac47 <_ZN6jlight6common8freelist8FreeList5alloc17h2f2d6f4ee78f41ecE+0x5f7>
    a9e8:	48 8d 2c 52          	lea    (%rdx,%rdx,2),%rbp
    a9ec:	48 c1 e5 04          	shl    $0x4,%rbp
    a9f0:	48 8b 04 2b          	mov    (%rbx,%rbp,1),%rax
    a9f4:	48 85 c0             	test   %rax,%rax
    a9f7:	0f 84 19 01 00 00    	je     ab16 <_ZN6jlight6common8freelist8FreeList5alloc17h2f2d6f4ee78f41ecE+0x4c6>
    a9fd:	48 01 eb             	add    %rbp,%rbx
    aa00:	48 89 d1             	mov    %rdx,%rcx
